ccopy_reg
_reconstructor
p0
(ctextblob.classifiers
NaiveBayesClassifier
p1
c__builtin__
object
p2
Ntp3
Rp4
(dp5
S'format_kwargs'
p6
(dp7
sS'train_features'
p8
(lp9
((dp10
Vcontains(pig)
p11
I00
sVcontains(jal)
p12
I00
sVcontains(drainag)
p13
I00
sVcontains(paschim)
p14
I00
sVcontains(behind)
p15
I00
sVcontains(suppli)
p16
I00
sVcontains(sewer)
p17
I00
sVcontains(problem)
p18
I00
sVcontains(hill)
p19
I00
sVcontains(20)
p20
I00
sVcontains(tagor)
p21
I00
sVcontains(wast)
p22
I00
sVcontains(162)
p23
I00
sVcontains(risk)
p24
I00
sVcontains(idgah)
p25
I00
sVcontains(leakag)
p26
I00
sVcontains(10)
p27
I00
sVcontains(water)
p28
I01
sVcontains(2017)
p29
I00
sVcontains(pacif)
p30
I00
sVcontains(unauthoris)
p31
I00
sVcontains(dengu)
p32
I00
sVcontains(murder)
p33
I00
sVcontains(sewag)
p34
I00
sVcontains(gar)
p35
I00
sVcontains(work)
p36
I00
sVcontains(construct)
p37
I00
sVcontains(mall)
p38
I00
sVcontains(wander)
p39
I00
sVcontains(overflow)
p40
I00
sVcontains(thief)
p41
I00
sVcontains(local)
p42
I00
sVcontains(regard)
p43
I00
sVcontains(chowk)
p44
I00
sVcontains(state)
p45
I00
sVcontains(7)
p46
I00
sVcontains(bank)
p47
I00
sVcontains(malaria)
p48
I00
sVcontains(drink)
p49
I00
sVcontains(high)
p50
I00
sVcontains(\u0926\u0935\u093e)
p51
I00
sVcontains(dog)
p52
I00
sVcontains(menac)
p53
I00
sVcontains(hous)
p54
I00
sVcontains(light)
p55
I00
sVcontains(bread)
p56
I00
sVcontains(staircas)
p57
I00
sVcontains(road)
p58
I00
sVcontains(spoil)
p59
I00
sVcontains(\u092c\u0940\u092e\u093e\u0930)
p60
I00
sVcontains(vihar)
p61
I00
sVcontains(robberi)
p62
I00
sVcontains(line)
p63
I00
sVcontains(accid)
p64
I00
sVcontains(e)
p65
I00
sVcontains(sinc)
p66
I00
sVcontains(front)
p67
I00
sVcontains(street)
p68
I00
sVcontains(new)
p69
I00
sVcontains(ramp)
p70
I00
sVcontains(clear)
p71
I00
sVcontains(110063)
p72
I00
sVcontains(anim)
p73
I00
sVcontains(nagar)
p74
I00
sVcontains(main)
p75
I00
sVcontains(burgler)
p76
I00
sVcontains(hole)
p77
I00
sVcontains(roadsid)
p78
I00
sVcontains(log)
p79
I00
sVcontains(day)
p80
I00
sVcontains(ill)
p81
I00
sVcontains(delhi)
p82
I00
sVcontains(drain)
p83
I00
sVcontains(garbag)
p84
I00
sVcontains(illeg)
p85
I00
sVcontains(mosquito)
p86
I00
sVcontains(medicin)
p87
I00
sVcontains(complaint)
p88
I00
sVcontains(sick)
p89
I00
sS'water'
p90
tp91
a((dp92
Vcontains(pig)
p93
I00
sVcontains(jal)
p94
I00
sVcontains(drainag)
p95
I00
sVcontains(paschim)
p96
I00
sVcontains(behind)
p97
I00
sVcontains(suppli)
p98
I00
sVcontains(sewer)
p99
I00
sVcontains(problem)
p100
I00
sVcontains(hill)
p101
I00
sVcontains(20)
p102
I00
sVcontains(tagor)
p103
I00
sVcontains(wast)
p104
I00
sVcontains(162)
p105
I00
sVcontains(risk)
p106
I00
sVcontains(idgah)
p107
I00
sVcontains(leakag)
p108
I00
sVcontains(10)
p109
I00
sVcontains(water)
p110
I00
sVcontains(2017)
p111
I00
sVcontains(pacif)
p112
I00
sVcontains(unauthoris)
p113
I00
sVcontains(dengu)
p114
I00
sVcontains(murder)
p115
I00
sVcontains(sewag)
p116
I00
sVcontains(gar)
p117
I00
sVcontains(work)
p118
I00
sVcontains(construct)
p119
I00
sVcontains(mall)
p120
I00
sVcontains(wander)
p121
I00
sVcontains(overflow)
p122
I00
sVcontains(thief)
p123
I00
sVcontains(local)
p124
I00
sVcontains(regard)
p125
I00
sVcontains(chowk)
p126
I00
sVcontains(state)
p127
I00
sVcontains(7)
p128
I00
sVcontains(bank)
p129
I00
sVcontains(malaria)
p130
I00
sVcontains(drink)
p131
I00
sVcontains(high)
p132
I00
sVcontains(\u0926\u0935\u093e)
p133
I00
sVcontains(dog)
p134
I00
sVcontains(menac)
p135
I00
sVcontains(hous)
p136
I00
sVcontains(light)
p137
I00
sVcontains(bread)
p138
I00
sVcontains(staircas)
p139
I00
sVcontains(road)
p140
I00
sVcontains(spoil)
p141
I00
sVcontains(\u092c\u0940\u092e\u093e\u0930)
p142
I00
sVcontains(vihar)
p143
I00
sVcontains(robberi)
p144
I00
sVcontains(line)
p145
I00
sVcontains(accid)
p146
I00
sVcontains(e)
p147
I00
sVcontains(sinc)
p148
I00
sVcontains(front)
p149
I00
sVcontains(street)
p150
I00
sVcontains(new)
p151
I00
sVcontains(ramp)
p152
I00
sVcontains(clear)
p153
I00
sVcontains(110063)
p154
I00
sVcontains(anim)
p155
I00
sVcontains(nagar)
p156
I00
sVcontains(main)
p157
I00
sVcontains(burgler)
p158
I00
sVcontains(hole)
p159
I00
sVcontains(roadsid)
p160
I00
sVcontains(log)
p161
I01
sVcontains(day)
p162
I00
sVcontains(ill)
p163
I00
sVcontains(delhi)
p164
I00
sVcontains(drain)
p165
I00
sVcontains(garbag)
p166
I00
sVcontains(illeg)
p167
I00
sVcontains(mosquito)
p168
I00
sVcontains(medicin)
p169
I00
sVcontains(complaint)
p170
I00
sVcontains(sick)
p171
I00
sg90
tp172
a((dp173
Vcontains(pig)
p174
I00
sVcontains(jal)
p175
I01
sVcontains(drainag)
p176
I00
sVcontains(paschim)
p177
I00
sVcontains(behind)
p178
I00
sVcontains(suppli)
p179
I00
sVcontains(sewer)
p180
I00
sVcontains(problem)
p181
I00
sVcontains(hill)
p182
I00
sVcontains(20)
p183
I00
sVcontains(tagor)
p184
I00
sVcontains(wast)
p185
I00
sVcontains(162)
p186
I00
sVcontains(risk)
p187
I00
sVcontains(idgah)
p188
I00
sVcontains(leakag)
p189
I00
sVcontains(10)
p190
I00
sVcontains(water)
p191
I00
sVcontains(2017)
p192
I00
sVcontains(pacif)
p193
I00
sVcontains(unauthoris)
p194
I00
sVcontains(dengu)
p195
I00
sVcontains(murder)
p196
I00
sVcontains(sewag)
p197
I00
sVcontains(gar)
p198
I00
sVcontains(work)
p199
I00
sVcontains(construct)
p200
I00
sVcontains(mall)
p201
I00
sVcontains(wander)
p202
I00
sVcontains(overflow)
p203
I00
sVcontains(thief)
p204
I00
sVcontains(local)
p205
I00
sVcontains(regard)
p206
I00
sVcontains(chowk)
p207
I00
sVcontains(state)
p208
I00
sVcontains(7)
p209
I00
sVcontains(bank)
p210
I00
sVcontains(malaria)
p211
I00
sVcontains(drink)
p212
I00
sVcontains(high)
p213
I00
sVcontains(\u0926\u0935\u093e)
p214
I00
sVcontains(dog)
p215
I00
sVcontains(menac)
p216
I00
sVcontains(hous)
p217
I00
sVcontains(light)
p218
I00
sVcontains(bread)
p219
I00
sVcontains(staircas)
p220
I00
sVcontains(road)
p221
I00
sVcontains(spoil)
p222
I00
sVcontains(\u092c\u0940\u092e\u093e\u0930)
p223
I00
sVcontains(vihar)
p224
I00
sVcontains(robberi)
p225
I00
sVcontains(line)
p226
I00
sVcontains(accid)
p227
I00
sVcontains(e)
p228
I00
sVcontains(sinc)
p229
I00
sVcontains(front)
p230
I00
sVcontains(street)
p231
I00
sVcontains(new)
p232
I00
sVcontains(ramp)
p233
I00
sVcontains(clear)
p234
I00
sVcontains(110063)
p235
I00
sVcontains(anim)
p236
I00
sVcontains(nagar)
p237
I00
sVcontains(main)
p238
I00
sVcontains(burgler)
p239
I00
sVcontains(hole)
p240
I00
sVcontains(roadsid)
p241
I00
sVcontains(log)
p242
I00
sVcontains(day)
p243
I00
sVcontains(ill)
p244
I00
sVcontains(delhi)
p245
I00
sVcontains(drain)
p246
I00
sVcontains(garbag)
p247
I00
sVcontains(illeg)
p248
I00
sVcontains(mosquito)
p249
I00
sVcontains(medicin)
p250
I00
sVcontains(complaint)
p251
I00
sVcontains(sick)
p252
I00
sg90
tp253
a((dp254
Vcontains(pig)
p255
I00
sVcontains(jal)
p256
I00
sVcontains(drainag)
p257
I01
sVcontains(paschim)
p258
I00
sVcontains(behind)
p259
I00
sVcontains(suppli)
p260
I00
sVcontains(sewer)
p261
I00
sVcontains(problem)
p262
I00
sVcontains(hill)
p263
I00
sVcontains(20)
p264
I00
sVcontains(tagor)
p265
I00
sVcontains(wast)
p266
I00
sVcontains(162)
p267
I00
sVcontains(risk)
p268
I00
sVcontains(idgah)
p269
I00
sVcontains(leakag)
p270
I00
sVcontains(10)
p271
I00
sVcontains(water)
p272
I00
sVcontains(2017)
p273
I00
sVcontains(pacif)
p274
I00
sVcontains(unauthoris)
p275
I00
sVcontains(dengu)
p276
I00
sVcontains(murder)
p277
I00
sVcontains(sewag)
p278
I00
sVcontains(gar)
p279
I00
sVcontains(work)
p280
I00
sVcontains(construct)
p281
I00
sVcontains(mall)
p282
I00
sVcontains(wander)
p283
I00
sVcontains(overflow)
p284
I00
sVcontains(thief)
p285
I00
sVcontains(local)
p286
I00
sVcontains(regard)
p287
I00
sVcontains(chowk)
p288
I00
sVcontains(state)
p289
I00
sVcontains(7)
p290
I00
sVcontains(bank)
p291
I00
sVcontains(malaria)
p292
I00
sVcontains(drink)
p293
I00
sVcontains(high)
p294
I00
sVcontains(\u0926\u0935\u093e)
p295
I00
sVcontains(dog)
p296
I00
sVcontains(menac)
p297
I00
sVcontains(hous)
p298
I00
sVcontains(light)
p299
I00
sVcontains(bread)
p300
I00
sVcontains(staircas)
p301
I00
sVcontains(road)
p302
I00
sVcontains(spoil)
p303
I00
sVcontains(\u092c\u0940\u092e\u093e\u0930)
p304
I00
sVcontains(vihar)
p305
I00
sVcontains(robberi)
p306
I00
sVcontains(line)
p307
I00
sVcontains(accid)
p308
I00
sVcontains(e)
p309
I00
sVcontains(sinc)
p310
I00
sVcontains(front)
p311
I00
sVcontains(street)
p312
I00
sVcontains(new)
p313
I00
sVcontains(ramp)
p314
I00
sVcontains(clear)
p315
I00
sVcontains(110063)
p316
I00
sVcontains(anim)
p317
I00
sVcontains(nagar)
p318
I00
sVcontains(main)
p319
I00
sVcontains(burgler)
p320
I00
sVcontains(hole)
p321
I00
sVcontains(roadsid)
p322
I00
sVcontains(log)
p323
I00
sVcontains(day)
p324
I00
sVcontains(ill)
p325
I00
sVcontains(delhi)
p326
I00
sVcontains(drain)
p327
I00
sVcontains(garbag)
p328
I00
sVcontains(illeg)
p329
I00
sVcontains(mosquito)
p330
I00
sVcontains(medicin)
p331
I00
sVcontains(complaint)
p332
I00
sVcontains(sick)
p333
I00
sg90
tp334
a((dp335
Vcontains(pig)
p336
I00
sVcontains(jal)
p337
I00
sVcontains(drainag)
p338
I00
sVcontains(paschim)
p339
I00
sVcontains(behind)
p340
I00
sVcontains(suppli)
p341
I00
sVcontains(sewer)
p342
I00
sVcontains(problem)
p343
I00
sVcontains(hill)
p344
I00
sVcontains(20)
p345
I00
sVcontains(tagor)
p346
I00
sVcontains(wast)
p347
I00
sVcontains(162)
p348
I00
sVcontains(risk)
p349
I00
sVcontains(idgah)
p350
I00
sVcontains(leakag)
p351
I00
sVcontains(10)
p352
I00
sVcontains(water)
p353
I00
sVcontains(2017)
p354
I00
sVcontains(pacif)
p355
I00
sVcontains(unauthoris)
p356
I00
sVcontains(dengu)
p357
I00
sVcontains(murder)
p358
I00
sVcontains(sewag)
p359
I01
sVcontains(gar)
p360
I00
sVcontains(work)
p361
I00
sVcontains(construct)
p362
I00
sVcontains(mall)
p363
I00
sVcontains(wander)
p364
I00
sVcontains(overflow)
p365
I00
sVcontains(thief)
p366
I00
sVcontains(local)
p367
I00
sVcontains(regard)
p368
I00
sVcontains(chowk)
p369
I00
sVcontains(state)
p370
I00
sVcontains(7)
p371
I00
sVcontains(bank)
p372
I00
sVcontains(malaria)
p373
I00
sVcontains(drink)
p374
I00
sVcontains(high)
p375
I00
sVcontains(\u0926\u0935\u093e)
p376
I00
sVcontains(dog)
p377
I00
sVcontains(menac)
p378
I00
sVcontains(hous)
p379
I00
sVcontains(light)
p380
I00
sVcontains(bread)
p381
I00
sVcontains(staircas)
p382
I00
sVcontains(road)
p383
I00
sVcontains(spoil)
p384
I00
sVcontains(\u092c\u0940\u092e\u093e\u0930)
p385
I00
sVcontains(vihar)
p386
I00
sVcontains(robberi)
p387
I00
sVcontains(line)
p388
I00
sVcontains(accid)
p389
I00
sVcontains(e)
p390
I00
sVcontains(sinc)
p391
I00
sVcontains(front)
p392
I00
sVcontains(street)
p393
I00
sVcontains(new)
p394
I00
sVcontains(ramp)
p395
I00
sVcontains(clear)
p396
I00
sVcontains(110063)
p397
I00
sVcontains(anim)
p398
I00
sVcontains(nagar)
p399
I00
sVcontains(main)
p400
I00
sVcontains(burgler)
p401
I00
sVcontains(hole)
p402
I00
sVcontains(roadsid)
p403
I00
sVcontains(log)
p404
I00
sVcontains(day)
p405
I00
sVcontains(ill)
p406
I00
sVcontains(delhi)
p407
I00
sVcontains(drain)
p408
I00
sVcontains(garbag)
p409
I00
sVcontains(illeg)
p410
I00
sVcontains(mosquito)
p411
I00
sVcontains(medicin)
p412
I00
sVcontains(complaint)
p413
I00
sVcontains(sick)
p414
I00
sg90
tp415
a((dp416
Vcontains(pig)
p417
I00
sVcontains(jal)
p418
I00
sVcontains(drainag)
p419
I00
sVcontains(paschim)
p420
I00
sVcontains(behind)
p421
I00
sVcontains(suppli)
p422
I00
sVcontains(sewer)
p423
I00
sVcontains(problem)
p424
I00
sVcontains(hill)
p425
I00
sVcontains(20)
p426
I00
sVcontains(tagor)
p427
I00
sVcontains(wast)
p428
I00
sVcontains(162)
p429
I00
sVcontains(risk)
p430
I00
sVcontains(idgah)
p431
I00
sVcontains(leakag)
p432
I00
sVcontains(10)
p433
I00
sVcontains(water)
p434
I00
sVcontains(2017)
p435
I00
sVcontains(pacif)
p436
I00
sVcontains(unauthoris)
p437
I00
sVcontains(dengu)
p438
I00
sVcontains(murder)
p439
I00
sVcontains(sewag)
p440
I00
sVcontains(gar)
p441
I00
sVcontains(work)
p442
I00
sVcontains(construct)
p443
I00
sVcontains(mall)
p444
I00
sVcontains(wander)
p445
I00
sVcontains(overflow)
p446
I00
sVcontains(thief)
p447
I00
sVcontains(local)
p448
I00
sVcontains(regard)
p449
I00
sVcontains(chowk)
p450
I00
sVcontains(state)
p451
I00
sVcontains(7)
p452
I00
sVcontains(bank)
p453
I00
sVcontains(malaria)
p454
I00
sVcontains(drink)
p455
I00
sVcontains(high)
p456
I00
sVcontains(\u0926\u0935\u093e)
p457
I00
sVcontains(dog)
p458
I00
sVcontains(menac)
p459
I00
sVcontains(hous)
p460
I00
sVcontains(light)
p461
I00
sVcontains(bread)
p462
I00
sVcontains(staircas)
p463
I00
sVcontains(road)
p464
I00
sVcontains(spoil)
p465
I00
sVcontains(\u092c\u0940\u092e\u093e\u0930)
p466
I00
sVcontains(vihar)
p467
I00
sVcontains(robberi)
p468
I00
sVcontains(line)
p469
I00
sVcontains(accid)
p470
I00
sVcontains(e)
p471
I00
sVcontains(sinc)
p472
I00
sVcontains(front)
p473
I00
sVcontains(street)
p474
I00
sVcontains(new)
p475
I00
sVcontains(ramp)
p476
I00
sVcontains(clear)
p477
I00
sVcontains(110063)
p478
I00
sVcontains(anim)
p479
I00
sVcontains(nagar)
p480
I00
sVcontains(main)
p481
I00
sVcontains(burgler)
p482
I01
sVcontains(hole)
p483
I00
sVcontains(roadsid)
p484
I00
sVcontains(log)
p485
I00
sVcontains(day)
p486
I00
sVcontains(ill)
p487
I00
sVcontains(delhi)
p488
I00
sVcontains(drain)
p489
I00
sVcontains(garbag)
p490
I00
sVcontains(illeg)
p491
I00
sVcontains(mosquito)
p492
I00
sVcontains(medicin)
p493
I00
sVcontains(complaint)
p494
I00
sVcontains(sick)
p495
I00
sS'police'
p496
tp497
a((dp498
Vcontains(pig)
p499
I00
sVcontains(jal)
p500
I00
sVcontains(drainag)
p501
I00
sVcontains(paschim)
p502
I00
sVcontains(behind)
p503
I00
sVcontains(suppli)
p504
I00
sVcontains(sewer)
p505
I00
sVcontains(problem)
p506
I00
sVcontains(hill)
p507
I00
sVcontains(20)
p508
I00
sVcontains(tagor)
p509
I00
sVcontains(wast)
p510
I00
sVcontains(162)
p511
I00
sVcontains(risk)
p512
I00
sVcontains(idgah)
p513
I00
sVcontains(leakag)
p514
I00
sVcontains(10)
p515
I00
sVcontains(water)
p516
I00
sVcontains(2017)
p517
I00
sVcontains(pacif)
p518
I00
sVcontains(unauthoris)
p519
I00
sVcontains(dengu)
p520
I00
sVcontains(murder)
p521
I00
sVcontains(sewag)
p522
I00
sVcontains(gar)
p523
I00
sVcontains(work)
p524
I00
sVcontains(construct)
p525
I00
sVcontains(mall)
p526
I00
sVcontains(wander)
p527
I00
sVcontains(overflow)
p528
I00
sVcontains(thief)
p529
I01
sVcontains(local)
p530
I00
sVcontains(regard)
p531
I00
sVcontains(chowk)
p532
I00
sVcontains(state)
p533
I00
sVcontains(7)
p534
I00
sVcontains(bank)
p535
I00
sVcontains(malaria)
p536
I00
sVcontains(drink)
p537
I00
sVcontains(high)
p538
I00
sVcontains(\u0926\u0935\u093e)
p539
I00
sVcontains(dog)
p540
I00
sVcontains(menac)
p541
I00
sVcontains(hous)
p542
I00
sVcontains(light)
p543
I00
sVcontains(bread)
p544
I00
sVcontains(staircas)
p545
I00
sVcontains(road)
p546
I00
sVcontains(spoil)
p547
I00
sVcontains(\u092c\u0940\u092e\u093e\u0930)
p548
I00
sVcontains(vihar)
p549
I00
sVcontains(robberi)
p550
I00
sVcontains(line)
p551
I00
sVcontains(accid)
p552
I00
sVcontains(e)
p553
I00
sVcontains(sinc)
p554
I00
sVcontains(front)
p555
I00
sVcontains(street)
p556
I00
sVcontains(new)
p557
I00
sVcontains(ramp)
p558
I00
sVcontains(clear)
p559
I00
sVcontains(110063)
p560
I00
sVcontains(anim)
p561
I00
sVcontains(nagar)
p562
I00
sVcontains(main)
p563
I00
sVcontains(burgler)
p564
I00
sVcontains(hole)
p565
I00
sVcontains(roadsid)
p566
I00
sVcontains(log)
p567
I00
sVcontains(day)
p568
I00
sVcontains(ill)
p569
I00
sVcontains(delhi)
p570
I00
sVcontains(drain)
p571
I00
sVcontains(garbag)
p572
I00
sVcontains(illeg)
p573
I00
sVcontains(mosquito)
p574
I00
sVcontains(medicin)
p575
I00
sVcontains(complaint)
p576
I00
sVcontains(sick)
p577
I00
sg496
tp578
a((dp579
Vcontains(pig)
p580
I00
sVcontains(jal)
p581
I00
sVcontains(drainag)
p582
I00
sVcontains(paschim)
p583
I00
sVcontains(behind)
p584
I00
sVcontains(suppli)
p585
I00
sVcontains(sewer)
p586
I00
sVcontains(problem)
p587
I00
sVcontains(hill)
p588
I00
sVcontains(20)
p589
I00
sVcontains(tagor)
p590
I00
sVcontains(wast)
p591
I00
sVcontains(162)
p592
I00
sVcontains(risk)
p593
I00
sVcontains(idgah)
p594
I00
sVcontains(leakag)
p595
I00
sVcontains(10)
p596
I00
sVcontains(water)
p597
I00
sVcontains(2017)
p598
I00
sVcontains(pacif)
p599
I00
sVcontains(unauthoris)
p600
I00
sVcontains(dengu)
p601
I00
sVcontains(murder)
p602
I00
sVcontains(sewag)
p603
I00
sVcontains(gar)
p604
I00
sVcontains(work)
p605
I00
sVcontains(construct)
p606
I00
sVcontains(mall)
p607
I00
sVcontains(wander)
p608
I00
sVcontains(overflow)
p609
I00
sVcontains(thief)
p610
I00
sVcontains(local)
p611
I00
sVcontains(regard)
p612
I00
sVcontains(chowk)
p613
I00
sVcontains(state)
p614
I00
sVcontains(7)
p615
I00
sVcontains(bank)
p616
I00
sVcontains(malaria)
p617
I00
sVcontains(drink)
p618
I00
sVcontains(high)
p619
I00
sVcontains(\u0926\u0935\u093e)
p620
I00
sVcontains(dog)
p621
I00
sVcontains(menac)
p622
I00
sVcontains(hous)
p623
I00
sVcontains(light)
p624
I00
sVcontains(bread)
p625
I00
sVcontains(staircas)
p626
I00
sVcontains(road)
p627
I00
sVcontains(spoil)
p628
I00
sVcontains(\u092c\u0940\u092e\u093e\u0930)
p629
I00
sVcontains(vihar)
p630
I00
sVcontains(robberi)
p631
I01
sVcontains(line)
p632
I00
sVcontains(accid)
p633
I00
sVcontains(e)
p634
I00
sVcontains(sinc)
p635
I00
sVcontains(front)
p636
I00
sVcontains(street)
p637
I00
sVcontains(new)
p638
I00
sVcontains(ramp)
p639
I00
sVcontains(clear)
p640
I00
sVcontains(110063)
p641
I00
sVcontains(anim)
p642
I00
sVcontains(nagar)
p643
I00
sVcontains(main)
p644
I00
sVcontains(burgler)
p645
I00
sVcontains(hole)
p646
I00
sVcontains(roadsid)
p647
I00
sVcontains(log)
p648
I00
sVcontains(day)
p649
I00
sVcontains(ill)
p650
I00
sVcontains(delhi)
p651
I00
sVcontains(drain)
p652
I00
sVcontains(garbag)
p653
I00
sVcontains(illeg)
p654
I00
sVcontains(mosquito)
p655
I00
sVcontains(medicin)
p656
I00
sVcontains(complaint)
p657
I00
sVcontains(sick)
p658
I00
sg496
tp659
a((dp660
Vcontains(pig)
p661
I00
sVcontains(jal)
p662
I00
sVcontains(drainag)
p663
I00
sVcontains(paschim)
p664
I00
sVcontains(behind)
p665
I00
sVcontains(suppli)
p666
I00
sVcontains(sewer)
p667
I00
sVcontains(problem)
p668
I00
sVcontains(hill)
p669
I00
sVcontains(20)
p670
I00
sVcontains(tagor)
p671
I00
sVcontains(wast)
p672
I00
sVcontains(162)
p673
I00
sVcontains(risk)
p674
I00
sVcontains(idgah)
p675
I00
sVcontains(leakag)
p676
I00
sVcontains(10)
p677
I00
sVcontains(water)
p678
I00
sVcontains(2017)
p679
I00
sVcontains(pacif)
p680
I00
sVcontains(unauthoris)
p681
I00
sVcontains(dengu)
p682
I00
sVcontains(murder)
p683
I01
sVcontains(sewag)
p684
I00
sVcontains(gar)
p685
I00
sVcontains(work)
p686
I00
sVcontains(construct)
p687
I00
sVcontains(mall)
p688
I00
sVcontains(wander)
p689
I00
sVcontains(overflow)
p690
I00
sVcontains(thief)
p691
I00
sVcontains(local)
p692
I00
sVcontains(regard)
p693
I00
sVcontains(chowk)
p694
I00
sVcontains(state)
p695
I00
sVcontains(7)
p696
I00
sVcontains(bank)
p697
I00
sVcontains(malaria)
p698
I00
sVcontains(drink)
p699
I00
sVcontains(high)
p700
I00
sVcontains(\u0926\u0935\u093e)
p701
I00
sVcontains(dog)
p702
I00
sVcontains(menac)
p703
I00
sVcontains(hous)
p704
I00
sVcontains(light)
p705
I00
sVcontains(bread)
p706
I00
sVcontains(staircas)
p707
I00
sVcontains(road)
p708
I00
sVcontains(spoil)
p709
I00
sVcontains(\u092c\u0940\u092e\u093e\u0930)
p710
I00
sVcontains(vihar)
p711
I00
sVcontains(robberi)
p712
I00
sVcontains(line)
p713
I00
sVcontains(accid)
p714
I00
sVcontains(e)
p715
I00
sVcontains(sinc)
p716
I00
sVcontains(front)
p717
I00
sVcontains(street)
p718
I00
sVcontains(new)
p719
I00
sVcontains(ramp)
p720
I00
sVcontains(clear)
p721
I00
sVcontains(110063)
p722
I00
sVcontains(anim)
p723
I00
sVcontains(nagar)
p724
I00
sVcontains(main)
p725
I00
sVcontains(burgler)
p726
I00
sVcontains(hole)
p727
I00
sVcontains(roadsid)
p728
I00
sVcontains(log)
p729
I00
sVcontains(day)
p730
I00
sVcontains(ill)
p731
I00
sVcontains(delhi)
p732
I00
sVcontains(drain)
p733
I00
sVcontains(garbag)
p734
I00
sVcontains(illeg)
p735
I00
sVcontains(mosquito)
p736
I00
sVcontains(medicin)
p737
I00
sVcontains(complaint)
p738
I00
sVcontains(sick)
p739
I00
sg496
tp740
a((dp741
Vcontains(pig)
p742
I00
sVcontains(jal)
p743
I00
sVcontains(drainag)
p744
I00
sVcontains(paschim)
p745
I00
sVcontains(behind)
p746
I00
sVcontains(suppli)
p747
I00
sVcontains(sewer)
p748
I00
sVcontains(problem)
p749
I00
sVcontains(hill)
p750
I00
sVcontains(20)
p751
I00
sVcontains(tagor)
p752
I00
sVcontains(wast)
p753
I00
sVcontains(162)
p754
I00
sVcontains(risk)
p755
I00
sVcontains(idgah)
p756
I00
sVcontains(leakag)
p757
I00
sVcontains(10)
p758
I00
sVcontains(water)
p759
I00
sVcontains(2017)
p760
I00
sVcontains(pacif)
p761
I00
sVcontains(unauthoris)
p762
I00
sVcontains(dengu)
p763
I00
sVcontains(murder)
p764
I00
sVcontains(sewag)
p765
I00
sVcontains(gar)
p766
I00
sVcontains(work)
p767
I00
sVcontains(construct)
p768
I00
sVcontains(mall)
p769
I00
sVcontains(wander)
p770
I00
sVcontains(overflow)
p771
I00
sVcontains(thief)
p772
I00
sVcontains(local)
p773
I00
sVcontains(regard)
p774
I00
sVcontains(chowk)
p775
I00
sVcontains(state)
p776
I00
sVcontains(7)
p777
I00
sVcontains(bank)
p778
I00
sVcontains(malaria)
p779
I00
sVcontains(drink)
p780
I00
sVcontains(high)
p781
I00
sVcontains(\u0926\u0935\u093e)
p782
I00
sVcontains(dog)
p783
I00
sVcontains(menac)
p784
I00
sVcontains(hous)
p785
I00
sVcontains(light)
p786
I00
sVcontains(bread)
p787
I00
sVcontains(staircas)
p788
I00
sVcontains(road)
p789
I00
sVcontains(spoil)
p790
I00
sVcontains(\u092c\u0940\u092e\u093e\u0930)
p791
I00
sVcontains(vihar)
p792
I00
sVcontains(robberi)
p793
I00
sVcontains(line)
p794
I00
sVcontains(accid)
p795
I00
sVcontains(e)
p796
I00
sVcontains(sinc)
p797
I00
sVcontains(front)
p798
I00
sVcontains(street)
p799
I00
sVcontains(new)
p800
I00
sVcontains(ramp)
p801
I00
sVcontains(clear)
p802
I00
sVcontains(110063)
p803
I00
sVcontains(anim)
p804
I00
sVcontains(nagar)
p805
I00
sVcontains(main)
p806
I00
sVcontains(burgler)
p807
I00
sVcontains(hole)
p808
I00
sVcontains(roadsid)
p809
I00
sVcontains(log)
p810
I00
sVcontains(day)
p811
I00
sVcontains(ill)
p812
I00
sVcontains(delhi)
p813
I00
sVcontains(drain)
p814
I00
sVcontains(garbag)
p815
I00
sVcontains(illeg)
p816
I00
sVcontains(mosquito)
p817
I00
sVcontains(medicin)
p818
I01
sVcontains(complaint)
p819
I00
sVcontains(sick)
p820
I00
sS'doctor'
p821
tp822
a((dp823
Vcontains(pig)
p824
I00
sVcontains(jal)
p825
I00
sVcontains(drainag)
p826
I00
sVcontains(paschim)
p827
I00
sVcontains(behind)
p828
I00
sVcontains(suppli)
p829
I00
sVcontains(sewer)
p830
I00
sVcontains(problem)
p831
I00
sVcontains(hill)
p832
I00
sVcontains(20)
p833
I00
sVcontains(tagor)
p834
I00
sVcontains(wast)
p835
I00
sVcontains(162)
p836
I00
sVcontains(risk)
p837
I00
sVcontains(idgah)
p838
I00
sVcontains(leakag)
p839
I00
sVcontains(10)
p840
I00
sVcontains(water)
p841
I00
sVcontains(2017)
p842
I00
sVcontains(pacif)
p843
I00
sVcontains(unauthoris)
p844
I00
sVcontains(dengu)
p845
I00
sVcontains(murder)
p846
I00
sVcontains(sewag)
p847
I00
sVcontains(gar)
p848
I00
sVcontains(work)
p849
I00
sVcontains(construct)
p850
I00
sVcontains(mall)
p851
I00
sVcontains(wander)
p852
I00
sVcontains(overflow)
p853
I00
sVcontains(thief)
p854
I00
sVcontains(local)
p855
I00
sVcontains(regard)
p856
I00
sVcontains(chowk)
p857
I00
sVcontains(state)
p858
I00
sVcontains(7)
p859
I00
sVcontains(bank)
p860
I00
sVcontains(malaria)
p861
I00
sVcontains(drink)
p862
I00
sVcontains(high)
p863
I00
sVcontains(\u0926\u0935\u093e)
p864
I00
sVcontains(dog)
p865
I00
sVcontains(menac)
p866
I00
sVcontains(hous)
p867
I00
sVcontains(light)
p868
I00
sVcontains(bread)
p869
I00
sVcontains(staircas)
p870
I00
sVcontains(road)
p871
I00
sVcontains(spoil)
p872
I00
sVcontains(\u092c\u0940\u092e\u093e\u0930)
p873
I00
sVcontains(vihar)
p874
I00
sVcontains(robberi)
p875
I00
sVcontains(line)
p876
I00
sVcontains(accid)
p877
I00
sVcontains(e)
p878
I00
sVcontains(sinc)
p879
I00
sVcontains(front)
p880
I00
sVcontains(street)
p881
I00
sVcontains(new)
p882
I00
sVcontains(ramp)
p883
I00
sVcontains(clear)
p884
I00
sVcontains(110063)
p885
I00
sVcontains(anim)
p886
I00
sVcontains(nagar)
p887
I00
sVcontains(main)
p888
I00
sVcontains(burgler)
p889
I00
sVcontains(hole)
p890
I00
sVcontains(roadsid)
p891
I00
sVcontains(log)
p892
I00
sVcontains(day)
p893
I00
sVcontains(ill)
p894
I01
sVcontains(delhi)
p895
I00
sVcontains(drain)
p896
I00
sVcontains(garbag)
p897
I00
sVcontains(illeg)
p898
I00
sVcontains(mosquito)
p899
I00
sVcontains(medicin)
p900
I00
sVcontains(complaint)
p901
I00
sVcontains(sick)
p902
I00
sg821
tp903
a((dp904
Vcontains(pig)
p905
I00
sVcontains(jal)
p906
I00
sVcontains(drainag)
p907
I00
sVcontains(paschim)
p908
I00
sVcontains(behind)
p909
I00
sVcontains(suppli)
p910
I00
sVcontains(sewer)
p911
I00
sVcontains(problem)
p912
I00
sVcontains(hill)
p913
I00
sVcontains(20)
p914
I00
sVcontains(tagor)
p915
I00
sVcontains(wast)
p916
I00
sVcontains(162)
p917
I00
sVcontains(risk)
p918
I00
sVcontains(idgah)
p919
I00
sVcontains(leakag)
p920
I00
sVcontains(10)
p921
I00
sVcontains(water)
p922
I00
sVcontains(2017)
p923
I00
sVcontains(pacif)
p924
I00
sVcontains(unauthoris)
p925
I00
sVcontains(dengu)
p926
I00
sVcontains(murder)
p927
I00
sVcontains(sewag)
p928
I00
sVcontains(gar)
p929
I00
sVcontains(work)
p930
I00
sVcontains(construct)
p931
I00
sVcontains(mall)
p932
I00
sVcontains(wander)
p933
I00
sVcontains(overflow)
p934
I00
sVcontains(thief)
p935
I00
sVcontains(local)
p936
I00
sVcontains(regard)
p937
I00
sVcontains(chowk)
p938
I00
sVcontains(state)
p939
I00
sVcontains(7)
p940
I00
sVcontains(bank)
p941
I00
sVcontains(malaria)
p942
I00
sVcontains(drink)
p943
I00
sVcontains(high)
p944
I00
sVcontains(\u0926\u0935\u093e)
p945
I00
sVcontains(dog)
p946
I00
sVcontains(menac)
p947
I00
sVcontains(hous)
p948
I00
sVcontains(light)
p949
I00
sVcontains(bread)
p950
I00
sVcontains(staircas)
p951
I00
sVcontains(road)
p952
I00
sVcontains(spoil)
p953
I00
sVcontains(\u092c\u0940\u092e\u093e\u0930)
p954
I00
sVcontains(vihar)
p955
I00
sVcontains(robberi)
p956
I00
sVcontains(line)
p957
I00
sVcontains(accid)
p958
I00
sVcontains(e)
p959
I00
sVcontains(sinc)
p960
I00
sVcontains(front)
p961
I00
sVcontains(street)
p962
I00
sVcontains(new)
p963
I00
sVcontains(ramp)
p964
I00
sVcontains(clear)
p965
I00
sVcontains(110063)
p966
I00
sVcontains(anim)
p967
I00
sVcontains(nagar)
p968
I00
sVcontains(main)
p969
I00
sVcontains(burgler)
p970
I00
sVcontains(hole)
p971
I00
sVcontains(roadsid)
p972
I00
sVcontains(log)
p973
I00
sVcontains(day)
p974
I00
sVcontains(ill)
p975
I00
sVcontains(delhi)
p976
I00
sVcontains(drain)
p977
I00
sVcontains(garbag)
p978
I00
sVcontains(illeg)
p979
I00
sVcontains(mosquito)
p980
I00
sVcontains(medicin)
p981
I00
sVcontains(complaint)
p982
I00
sVcontains(sick)
p983
I01
sg821
tp984
a((dp985
Vcontains(pig)
p986
I00
sVcontains(jal)
p987
I00
sVcontains(drainag)
p988
I00
sVcontains(paschim)
p989
I00
sVcontains(behind)
p990
I00
sVcontains(suppli)
p991
I00
sVcontains(sewer)
p992
I00
sVcontains(problem)
p993
I00
sVcontains(hill)
p994
I00
sVcontains(20)
p995
I00
sVcontains(tagor)
p996
I00
sVcontains(wast)
p997
I00
sVcontains(162)
p998
I00
sVcontains(risk)
p999
I00
sVcontains(idgah)
p1000
I00
sVcontains(leakag)
p1001
I00
sVcontains(10)
p1002
I00
sVcontains(water)
p1003
I00
sVcontains(2017)
p1004
I00
sVcontains(pacif)
p1005
I00
sVcontains(unauthoris)
p1006
I00
sVcontains(dengu)
p1007
I00
sVcontains(murder)
p1008
I00
sVcontains(sewag)
p1009
I00
sVcontains(gar)
p1010
I00
sVcontains(work)
p1011
I00
sVcontains(construct)
p1012
I00
sVcontains(mall)
p1013
I00
sVcontains(wander)
p1014
I00
sVcontains(overflow)
p1015
I00
sVcontains(thief)
p1016
I00
sVcontains(local)
p1017
I00
sVcontains(regard)
p1018
I00
sVcontains(chowk)
p1019
I00
sVcontains(state)
p1020
I00
sVcontains(7)
p1021
I00
sVcontains(bank)
p1022
I00
sVcontains(malaria)
p1023
I00
sVcontains(drink)
p1024
I00
sVcontains(high)
p1025
I00
sVcontains(\u0926\u0935\u093e)
p1026
I00
sVcontains(dog)
p1027
I00
sVcontains(menac)
p1028
I00
sVcontains(hous)
p1029
I00
sVcontains(light)
p1030
I00
sVcontains(bread)
p1031
I00
sVcontains(staircas)
p1032
I00
sVcontains(road)
p1033
I00
sVcontains(spoil)
p1034
I00
sVcontains(\u092c\u0940\u092e\u093e\u0930)
p1035
I00
sVcontains(vihar)
p1036
I00
sVcontains(robberi)
p1037
I00
sVcontains(line)
p1038
I00
sVcontains(accid)
p1039
I01
sVcontains(e)
p1040
I00
sVcontains(sinc)
p1041
I00
sVcontains(front)
p1042
I00
sVcontains(street)
p1043
I00
sVcontains(new)
p1044
I00
sVcontains(ramp)
p1045
I00
sVcontains(clear)
p1046
I00
sVcontains(110063)
p1047
I00
sVcontains(anim)
p1048
I00
sVcontains(nagar)
p1049
I00
sVcontains(main)
p1050
I00
sVcontains(burgler)
p1051
I00
sVcontains(hole)
p1052
I00
sVcontains(roadsid)
p1053
I00
sVcontains(log)
p1054
I00
sVcontains(day)
p1055
I00
sVcontains(ill)
p1056
I00
sVcontains(delhi)
p1057
I00
sVcontains(drain)
p1058
I00
sVcontains(garbag)
p1059
I00
sVcontains(illeg)
p1060
I00
sVcontains(mosquito)
p1061
I00
sVcontains(medicin)
p1062
I00
sVcontains(complaint)
p1063
I00
sVcontains(sick)
p1064
I00
sg821
tp1065
a((dp1066
Vcontains(pig)
p1067
I00
sVcontains(jal)
p1068
I00
sVcontains(drainag)
p1069
I00
sVcontains(paschim)
p1070
I00
sVcontains(behind)
p1071
I00
sVcontains(suppli)
p1072
I00
sVcontains(sewer)
p1073
I00
sVcontains(problem)
p1074
I00
sVcontains(hill)
p1075
I00
sVcontains(20)
p1076
I00
sVcontains(tagor)
p1077
I00
sVcontains(wast)
p1078
I00
sVcontains(162)
p1079
I00
sVcontains(risk)
p1080
I00
sVcontains(idgah)
p1081
I00
sVcontains(leakag)
p1082
I00
sVcontains(10)
p1083
I00
sVcontains(water)
p1084
I00
sVcontains(2017)
p1085
I00
sVcontains(pacif)
p1086
I00
sVcontains(unauthoris)
p1087
I00
sVcontains(dengu)
p1088
I00
sVcontains(murder)
p1089
I00
sVcontains(sewag)
p1090
I00
sVcontains(gar)
p1091
I00
sVcontains(work)
p1092
I00
sVcontains(construct)
p1093
I00
sVcontains(mall)
p1094
I00
sVcontains(wander)
p1095
I00
sVcontains(overflow)
p1096
I00
sVcontains(thief)
p1097
I00
sVcontains(local)
p1098
I00
sVcontains(regard)
p1099
I00
sVcontains(chowk)
p1100
I00
sVcontains(state)
p1101
I00
sVcontains(7)
p1102
I00
sVcontains(bank)
p1103
I00
sVcontains(malaria)
p1104
I00
sVcontains(drink)
p1105
I00
sVcontains(high)
p1106
I00
sVcontains(\u0926\u0935\u093e)
p1107
I00
sVcontains(dog)
p1108
I01
sVcontains(menac)
p1109
I00
sVcontains(hous)
p1110
I00
sVcontains(light)
p1111
I00
sVcontains(bread)
p1112
I00
sVcontains(staircas)
p1113
I00
sVcontains(road)
p1114
I00
sVcontains(spoil)
p1115
I00
sVcontains(\u092c\u0940\u092e\u093e\u0930)
p1116
I00
sVcontains(vihar)
p1117
I00
sVcontains(robberi)
p1118
I00
sVcontains(line)
p1119
I00
sVcontains(accid)
p1120
I00
sVcontains(e)
p1121
I00
sVcontains(sinc)
p1122
I00
sVcontains(front)
p1123
I00
sVcontains(street)
p1124
I00
sVcontains(new)
p1125
I00
sVcontains(ramp)
p1126
I00
sVcontains(clear)
p1127
I00
sVcontains(110063)
p1128
I00
sVcontains(anim)
p1129
I00
sVcontains(nagar)
p1130
I00
sVcontains(main)
p1131
I00
sVcontains(burgler)
p1132
I00
sVcontains(hole)
p1133
I00
sVcontains(roadsid)
p1134
I00
sVcontains(log)
p1135
I00
sVcontains(day)
p1136
I00
sVcontains(ill)
p1137
I00
sVcontains(delhi)
p1138
I00
sVcontains(drain)
p1139
I00
sVcontains(garbag)
p1140
I00
sVcontains(illeg)
p1141
I00
sVcontains(mosquito)
p1142
I00
sVcontains(medicin)
p1143
I00
sVcontains(complaint)
p1144
I00
sVcontains(sick)
p1145
I00
sS'municipal'
p1146
tp1147
a((dp1148
Vcontains(pig)
p1149
I00
sVcontains(jal)
p1150
I00
sVcontains(drainag)
p1151
I00
sVcontains(paschim)
p1152
I00
sVcontains(behind)
p1153
I00
sVcontains(suppli)
p1154
I00
sVcontains(sewer)
p1155
I00
sVcontains(problem)
p1156
I00
sVcontains(hill)
p1157
I00
sVcontains(20)
p1158
I00
sVcontains(tagor)
p1159
I00
sVcontains(wast)
p1160
I01
sVcontains(162)
p1161
I00
sVcontains(risk)
p1162
I00
sVcontains(idgah)
p1163
I00
sVcontains(leakag)
p1164
I00
sVcontains(10)
p1165
I00
sVcontains(water)
p1166
I00
sVcontains(2017)
p1167
I00
sVcontains(pacif)
p1168
I00
sVcontains(unauthoris)
p1169
I00
sVcontains(dengu)
p1170
I00
sVcontains(murder)
p1171
I00
sVcontains(sewag)
p1172
I00
sVcontains(gar)
p1173
I00
sVcontains(work)
p1174
I00
sVcontains(construct)
p1175
I00
sVcontains(mall)
p1176
I00
sVcontains(wander)
p1177
I00
sVcontains(overflow)
p1178
I00
sVcontains(thief)
p1179
I00
sVcontains(local)
p1180
I00
sVcontains(regard)
p1181
I00
sVcontains(chowk)
p1182
I00
sVcontains(state)
p1183
I00
sVcontains(7)
p1184
I00
sVcontains(bank)
p1185
I00
sVcontains(malaria)
p1186
I00
sVcontains(drink)
p1187
I00
sVcontains(high)
p1188
I00
sVcontains(\u0926\u0935\u093e)
p1189
I00
sVcontains(dog)
p1190
I00
sVcontains(menac)
p1191
I00
sVcontains(hous)
p1192
I00
sVcontains(light)
p1193
I00
sVcontains(bread)
p1194
I00
sVcontains(staircas)
p1195
I00
sVcontains(road)
p1196
I00
sVcontains(spoil)
p1197
I00
sVcontains(\u092c\u0940\u092e\u093e\u0930)
p1198
I00
sVcontains(vihar)
p1199
I00
sVcontains(robberi)
p1200
I00
sVcontains(line)
p1201
I00
sVcontains(accid)
p1202
I00
sVcontains(e)
p1203
I00
sVcontains(sinc)
p1204
I00
sVcontains(front)
p1205
I00
sVcontains(street)
p1206
I00
sVcontains(new)
p1207
I00
sVcontains(ramp)
p1208
I00
sVcontains(clear)
p1209
I00
sVcontains(110063)
p1210
I00
sVcontains(anim)
p1211
I00
sVcontains(nagar)
p1212
I00
sVcontains(main)
p1213
I00
sVcontains(burgler)
p1214
I00
sVcontains(hole)
p1215
I00
sVcontains(roadsid)
p1216
I00
sVcontains(log)
p1217
I00
sVcontains(day)
p1218
I00
sVcontains(ill)
p1219
I00
sVcontains(delhi)
p1220
I00
sVcontains(drain)
p1221
I00
sVcontains(garbag)
p1222
I00
sVcontains(illeg)
p1223
I00
sVcontains(mosquito)
p1224
I00
sVcontains(medicin)
p1225
I00
sVcontains(complaint)
p1226
I00
sVcontains(sick)
p1227
I00
sg1146
tp1228
a((dp1229
Vcontains(pig)
p1230
I00
sVcontains(jal)
p1231
I00
sVcontains(drainag)
p1232
I00
sVcontains(paschim)
p1233
I00
sVcontains(behind)
p1234
I00
sVcontains(suppli)
p1235
I00
sVcontains(sewer)
p1236
I00
sVcontains(problem)
p1237
I00
sVcontains(hill)
p1238
I00
sVcontains(20)
p1239
I00
sVcontains(tagor)
p1240
I00
sVcontains(wast)
p1241
I00
sVcontains(162)
p1242
I00
sVcontains(risk)
p1243
I00
sVcontains(idgah)
p1244
I00
sVcontains(leakag)
p1245
I00
sVcontains(10)
p1246
I00
sVcontains(water)
p1247
I00
sVcontains(2017)
p1248
I00
sVcontains(pacif)
p1249
I00
sVcontains(unauthoris)
p1250
I00
sVcontains(dengu)
p1251
I00
sVcontains(murder)
p1252
I00
sVcontains(sewag)
p1253
I00
sVcontains(gar)
p1254
I00
sVcontains(work)
p1255
I00
sVcontains(construct)
p1256
I00
sVcontains(mall)
p1257
I00
sVcontains(wander)
p1258
I00
sVcontains(overflow)
p1259
I00
sVcontains(thief)
p1260
I00
sVcontains(local)
p1261
I00
sVcontains(regard)
p1262
I00
sVcontains(chowk)
p1263
I00
sVcontains(state)
p1264
I00
sVcontains(7)
p1265
I00
sVcontains(bank)
p1266
I00
sVcontains(malaria)
p1267
I00
sVcontains(drink)
p1268
I00
sVcontains(high)
p1269
I00
sVcontains(\u0926\u0935\u093e)
p1270
I00
sVcontains(dog)
p1271
I00
sVcontains(menac)
p1272
I00
sVcontains(hous)
p1273
I00
sVcontains(light)
p1274
I00
sVcontains(bread)
p1275
I00
sVcontains(staircas)
p1276
I00
sVcontains(road)
p1277
I00
sVcontains(spoil)
p1278
I00
sVcontains(\u092c\u0940\u092e\u093e\u0930)
p1279
I00
sVcontains(vihar)
p1280
I00
sVcontains(robberi)
p1281
I00
sVcontains(line)
p1282
I00
sVcontains(accid)
p1283
I00
sVcontains(e)
p1284
I00
sVcontains(sinc)
p1285
I00
sVcontains(front)
p1286
I00
sVcontains(street)
p1287
I00
sVcontains(new)
p1288
I00
sVcontains(ramp)
p1289
I00
sVcontains(clear)
p1290
I00
sVcontains(110063)
p1291
I00
sVcontains(anim)
p1292
I00
sVcontains(nagar)
p1293
I00
sVcontains(main)
p1294
I00
sVcontains(burgler)
p1295
I00
sVcontains(hole)
p1296
I00
sVcontains(roadsid)
p1297
I00
sVcontains(log)
p1298
I00
sVcontains(day)
p1299
I00
sVcontains(ill)
p1300
I00
sVcontains(delhi)
p1301
I00
sVcontains(drain)
p1302
I00
sVcontains(garbag)
p1303
I01
sVcontains(illeg)
p1304
I00
sVcontains(mosquito)
p1305
I00
sVcontains(medicin)
p1306
I00
sVcontains(complaint)
p1307
I00
sVcontains(sick)
p1308
I00
sg1146
tp1309
a((dp1310
Vcontains(pig)
p1311
I00
sVcontains(jal)
p1312
I00
sVcontains(drainag)
p1313
I00
sVcontains(paschim)
p1314
I00
sVcontains(behind)
p1315
I00
sVcontains(suppli)
p1316
I00
sVcontains(sewer)
p1317
I00
sVcontains(problem)
p1318
I00
sVcontains(hill)
p1319
I00
sVcontains(20)
p1320
I00
sVcontains(tagor)
p1321
I00
sVcontains(wast)
p1322
I00
sVcontains(162)
p1323
I00
sVcontains(risk)
p1324
I00
sVcontains(idgah)
p1325
I00
sVcontains(leakag)
p1326
I00
sVcontains(10)
p1327
I00
sVcontains(water)
p1328
I00
sVcontains(2017)
p1329
I00
sVcontains(pacif)
p1330
I00
sVcontains(unauthoris)
p1331
I00
sVcontains(dengu)
p1332
I00
sVcontains(murder)
p1333
I00
sVcontains(sewag)
p1334
I00
sVcontains(gar)
p1335
I00
sVcontains(work)
p1336
I00
sVcontains(construct)
p1337
I00
sVcontains(mall)
p1338
I00
sVcontains(wander)
p1339
I00
sVcontains(overflow)
p1340
I00
sVcontains(thief)
p1341
I00
sVcontains(local)
p1342
I00
sVcontains(regard)
p1343
I00
sVcontains(chowk)
p1344
I00
sVcontains(state)
p1345
I00
sVcontains(7)
p1346
I00
sVcontains(bank)
p1347
I00
sVcontains(malaria)
p1348
I00
sVcontains(drink)
p1349
I00
sVcontains(high)
p1350
I00
sVcontains(\u0926\u0935\u093e)
p1351
I00
sVcontains(dog)
p1352
I00
sVcontains(menac)
p1353
I00
sVcontains(hous)
p1354
I00
sVcontains(light)
p1355
I00
sVcontains(bread)
p1356
I00
sVcontains(staircas)
p1357
I00
sVcontains(road)
p1358
I00
sVcontains(spoil)
p1359
I00
sVcontains(\u092c\u0940\u092e\u093e\u0930)
p1360
I00
sVcontains(vihar)
p1361
I00
sVcontains(robberi)
p1362
I00
sVcontains(line)
p1363
I00
sVcontains(accid)
p1364
I00
sVcontains(e)
p1365
I00
sVcontains(sinc)
p1366
I00
sVcontains(front)
p1367
I00
sVcontains(street)
p1368
I00
sVcontains(new)
p1369
I00
sVcontains(ramp)
p1370
I00
sVcontains(clear)
p1371
I00
sVcontains(110063)
p1372
I00
sVcontains(anim)
p1373
I00
sVcontains(nagar)
p1374
I00
sVcontains(main)
p1375
I00
sVcontains(burgler)
p1376
I00
sVcontains(hole)
p1377
I00
sVcontains(roadsid)
p1378
I00
sVcontains(log)
p1379
I00
sVcontains(day)
p1380
I00
sVcontains(ill)
p1381
I00
sVcontains(delhi)
p1382
I00
sVcontains(drain)
p1383
I00
sVcontains(garbag)
p1384
I00
sVcontains(illeg)
p1385
I01
sVcontains(mosquito)
p1386
I00
sVcontains(medicin)
p1387
I00
sVcontains(complaint)
p1388
I00
sVcontains(sick)
p1389
I00
sg496
tp1390
a((dp1391
Vcontains(pig)
p1392
I00
sVcontains(jal)
p1393
I00
sVcontains(drainag)
p1394
I00
sVcontains(paschim)
p1395
I00
sVcontains(behind)
p1396
I00
sVcontains(suppli)
p1397
I00
sVcontains(sewer)
p1398
I00
sVcontains(problem)
p1399
I00
sVcontains(hill)
p1400
I00
sVcontains(20)
p1401
I00
sVcontains(tagor)
p1402
I00
sVcontains(wast)
p1403
I00
sVcontains(162)
p1404
I00
sVcontains(risk)
p1405
I00
sVcontains(idgah)
p1406
I00
sVcontains(leakag)
p1407
I00
sVcontains(10)
p1408
I00
sVcontains(water)
p1409
I00
sVcontains(2017)
p1410
I00
sVcontains(pacif)
p1411
I00
sVcontains(unauthoris)
p1412
I00
sVcontains(dengu)
p1413
I00
sVcontains(murder)
p1414
I00
sVcontains(sewag)
p1415
I00
sVcontains(gar)
p1416
I00
sVcontains(work)
p1417
I00
sVcontains(construct)
p1418
I00
sVcontains(mall)
p1419
I00
sVcontains(wander)
p1420
I00
sVcontains(overflow)
p1421
I00
sVcontains(thief)
p1422
I00
sVcontains(local)
p1423
I00
sVcontains(regard)
p1424
I00
sVcontains(chowk)
p1425
I00
sVcontains(state)
p1426
I00
sVcontains(7)
p1427
I00
sVcontains(bank)
p1428
I00
sVcontains(malaria)
p1429
I00
sVcontains(drink)
p1430
I00
sVcontains(high)
p1431
I00
sVcontains(\u0926\u0935\u093e)
p1432
I00
sVcontains(dog)
p1433
I00
sVcontains(menac)
p1434
I00
sVcontains(hous)
p1435
I00
sVcontains(light)
p1436
I00
sVcontains(bread)
p1437
I00
sVcontains(staircas)
p1438
I00
sVcontains(road)
p1439
I00
sVcontains(spoil)
p1440
I00
sVcontains(\u092c\u0940\u092e\u093e\u0930)
p1441
I00
sVcontains(vihar)
p1442
I00
sVcontains(robberi)
p1443
I00
sVcontains(line)
p1444
I00
sVcontains(accid)
p1445
I00
sVcontains(e)
p1446
I00
sVcontains(sinc)
p1447
I00
sVcontains(front)
p1448
I00
sVcontains(street)
p1449
I00
sVcontains(new)
p1450
I00
sVcontains(ramp)
p1451
I00
sVcontains(clear)
p1452
I00
sVcontains(110063)
p1453
I00
sVcontains(anim)
p1454
I01
sVcontains(nagar)
p1455
I00
sVcontains(main)
p1456
I00
sVcontains(burgler)
p1457
I00
sVcontains(hole)
p1458
I00
sVcontains(roadsid)
p1459
I00
sVcontains(log)
p1460
I00
sVcontains(day)
p1461
I00
sVcontains(ill)
p1462
I00
sVcontains(delhi)
p1463
I00
sVcontains(drain)
p1464
I00
sVcontains(garbag)
p1465
I00
sVcontains(illeg)
p1466
I00
sVcontains(mosquito)
p1467
I00
sVcontains(medicin)
p1468
I00
sVcontains(complaint)
p1469
I00
sVcontains(sick)
p1470
I00
sg1146
tp1471
a((dp1472
Vcontains(pig)
p1473
I00
sVcontains(jal)
p1474
I00
sVcontains(drainag)
p1475
I00
sVcontains(paschim)
p1476
I00
sVcontains(behind)
p1477
I00
sVcontains(suppli)
p1478
I00
sVcontains(sewer)
p1479
I00
sVcontains(problem)
p1480
I00
sVcontains(hill)
p1481
I00
sVcontains(20)
p1482
I00
sVcontains(tagor)
p1483
I00
sVcontains(wast)
p1484
I00
sVcontains(162)
p1485
I00
sVcontains(risk)
p1486
I00
sVcontains(idgah)
p1487
I00
sVcontains(leakag)
p1488
I00
sVcontains(10)
p1489
I00
sVcontains(water)
p1490
I00
sVcontains(2017)
p1491
I00
sVcontains(pacif)
p1492
I00
sVcontains(unauthoris)
p1493
I00
sVcontains(dengu)
p1494
I00
sVcontains(murder)
p1495
I00
sVcontains(sewag)
p1496
I00
sVcontains(gar)
p1497
I00
sVcontains(work)
p1498
I00
sVcontains(construct)
p1499
I00
sVcontains(mall)
p1500
I00
sVcontains(wander)
p1501
I00
sVcontains(overflow)
p1502
I00
sVcontains(thief)
p1503
I00
sVcontains(local)
p1504
I00
sVcontains(regard)
p1505
I00
sVcontains(chowk)
p1506
I00
sVcontains(state)
p1507
I00
sVcontains(7)
p1508
I00
sVcontains(bank)
p1509
I00
sVcontains(malaria)
p1510
I00
sVcontains(drink)
p1511
I00
sVcontains(high)
p1512
I00
sVcontains(\u0926\u0935\u093e)
p1513
I00
sVcontains(dog)
p1514
I00
sVcontains(menac)
p1515
I00
sVcontains(hous)
p1516
I00
sVcontains(light)
p1517
I01
sVcontains(bread)
p1518
I00
sVcontains(staircas)
p1519
I00
sVcontains(road)
p1520
I00
sVcontains(spoil)
p1521
I00
sVcontains(\u092c\u0940\u092e\u093e\u0930)
p1522
I00
sVcontains(vihar)
p1523
I00
sVcontains(robberi)
p1524
I00
sVcontains(line)
p1525
I00
sVcontains(accid)
p1526
I00
sVcontains(e)
p1527
I00
sVcontains(sinc)
p1528
I00
sVcontains(front)
p1529
I00
sVcontains(street)
p1530
I00
sVcontains(new)
p1531
I00
sVcontains(ramp)
p1532
I00
sVcontains(clear)
p1533
I00
sVcontains(110063)
p1534
I00
sVcontains(anim)
p1535
I00
sVcontains(nagar)
p1536
I00
sVcontains(main)
p1537
I00
sVcontains(burgler)
p1538
I00
sVcontains(hole)
p1539
I00
sVcontains(roadsid)
p1540
I00
sVcontains(log)
p1541
I00
sVcontains(day)
p1542
I00
sVcontains(ill)
p1543
I00
sVcontains(delhi)
p1544
I00
sVcontains(drain)
p1545
I00
sVcontains(garbag)
p1546
I00
sVcontains(illeg)
p1547
I00
sVcontains(mosquito)
p1548
I00
sVcontains(medicin)
p1549
I00
sVcontains(complaint)
p1550
I00
sVcontains(sick)
p1551
I00
sS'electrical'
p1552
tp1553
a((dp1554
Vcontains(pig)
p1555
I00
sVcontains(jal)
p1556
I00
sVcontains(drainag)
p1557
I00
sVcontains(paschim)
p1558
I00
sVcontains(behind)
p1559
I00
sVcontains(suppli)
p1560
I00
sVcontains(sewer)
p1561
I00
sVcontains(problem)
p1562
I00
sVcontains(hill)
p1563
I00
sVcontains(20)
p1564
I00
sVcontains(tagor)
p1565
I00
sVcontains(wast)
p1566
I00
sVcontains(162)
p1567
I00
sVcontains(risk)
p1568
I00
sVcontains(idgah)
p1569
I00
sVcontains(leakag)
p1570
I00
sVcontains(10)
p1571
I00
sVcontains(water)
p1572
I00
sVcontains(2017)
p1573
I00
sVcontains(pacif)
p1574
I00
sVcontains(unauthoris)
p1575
I00
sVcontains(dengu)
p1576
I00
sVcontains(murder)
p1577
I00
sVcontains(sewag)
p1578
I00
sVcontains(gar)
p1579
I00
sVcontains(work)
p1580
I00
sVcontains(construct)
p1581
I00
sVcontains(mall)
p1582
I00
sVcontains(wander)
p1583
I00
sVcontains(overflow)
p1584
I00
sVcontains(thief)
p1585
I00
sVcontains(local)
p1586
I00
sVcontains(regard)
p1587
I00
sVcontains(chowk)
p1588
I00
sVcontains(state)
p1589
I00
sVcontains(7)
p1590
I00
sVcontains(bank)
p1591
I00
sVcontains(malaria)
p1592
I00
sVcontains(drink)
p1593
I00
sVcontains(high)
p1594
I00
sVcontains(\u0926\u0935\u093e)
p1595
I01
sVcontains(dog)
p1596
I00
sVcontains(menac)
p1597
I00
sVcontains(hous)
p1598
I00
sVcontains(light)
p1599
I00
sVcontains(bread)
p1600
I00
sVcontains(staircas)
p1601
I00
sVcontains(road)
p1602
I00
sVcontains(spoil)
p1603
I00
sVcontains(\u092c\u0940\u092e\u093e\u0930)
p1604
I00
sVcontains(vihar)
p1605
I00
sVcontains(robberi)
p1606
I00
sVcontains(line)
p1607
I00
sVcontains(accid)
p1608
I00
sVcontains(e)
p1609
I00
sVcontains(sinc)
p1610
I00
sVcontains(front)
p1611
I00
sVcontains(street)
p1612
I00
sVcontains(new)
p1613
I00
sVcontains(ramp)
p1614
I00
sVcontains(clear)
p1615
I00
sVcontains(110063)
p1616
I00
sVcontains(anim)
p1617
I00
sVcontains(nagar)
p1618
I00
sVcontains(main)
p1619
I00
sVcontains(burgler)
p1620
I00
sVcontains(hole)
p1621
I00
sVcontains(roadsid)
p1622
I00
sVcontains(log)
p1623
I00
sVcontains(day)
p1624
I00
sVcontains(ill)
p1625
I00
sVcontains(delhi)
p1626
I00
sVcontains(drain)
p1627
I00
sVcontains(garbag)
p1628
I00
sVcontains(illeg)
p1629
I00
sVcontains(mosquito)
p1630
I00
sVcontains(medicin)
p1631
I00
sVcontains(complaint)
p1632
I00
sVcontains(sick)
p1633
I00
sg821
tp1634
a((dp1635
Vcontains(pig)
p1636
I00
sVcontains(jal)
p1637
I00
sVcontains(drainag)
p1638
I00
sVcontains(paschim)
p1639
I00
sVcontains(behind)
p1640
I00
sVcontains(suppli)
p1641
I00
sVcontains(sewer)
p1642
I00
sVcontains(problem)
p1643
I00
sVcontains(hill)
p1644
I00
sVcontains(20)
p1645
I00
sVcontains(tagor)
p1646
I00
sVcontains(wast)
p1647
I00
sVcontains(162)
p1648
I00
sVcontains(risk)
p1649
I00
sVcontains(idgah)
p1650
I00
sVcontains(leakag)
p1651
I00
sVcontains(10)
p1652
I00
sVcontains(water)
p1653
I00
sVcontains(2017)
p1654
I00
sVcontains(pacif)
p1655
I00
sVcontains(unauthoris)
p1656
I00
sVcontains(dengu)
p1657
I00
sVcontains(murder)
p1658
I00
sVcontains(sewag)
p1659
I00
sVcontains(gar)
p1660
I00
sVcontains(work)
p1661
I00
sVcontains(construct)
p1662
I00
sVcontains(mall)
p1663
I00
sVcontains(wander)
p1664
I00
sVcontains(overflow)
p1665
I00
sVcontains(thief)
p1666
I00
sVcontains(local)
p1667
I00
sVcontains(regard)
p1668
I00
sVcontains(chowk)
p1669
I00
sVcontains(state)
p1670
I00
sVcontains(7)
p1671
I00
sVcontains(bank)
p1672
I00
sVcontains(malaria)
p1673
I00
sVcontains(drink)
p1674
I00
sVcontains(high)
p1675
I00
sVcontains(\u0926\u0935\u093e)
p1676
I00
sVcontains(dog)
p1677
I00
sVcontains(menac)
p1678
I00
sVcontains(hous)
p1679
I00
sVcontains(light)
p1680
I00
sVcontains(bread)
p1681
I00
sVcontains(staircas)
p1682
I00
sVcontains(road)
p1683
I00
sVcontains(spoil)
p1684
I00
sVcontains(\u092c\u0940\u092e\u093e\u0930)
p1685
I01
sVcontains(vihar)
p1686
I00
sVcontains(robberi)
p1687
I00
sVcontains(line)
p1688
I00
sVcontains(accid)
p1689
I00
sVcontains(e)
p1690
I00
sVcontains(sinc)
p1691
I00
sVcontains(front)
p1692
I00
sVcontains(street)
p1693
I00
sVcontains(new)
p1694
I00
sVcontains(ramp)
p1695
I00
sVcontains(clear)
p1696
I00
sVcontains(110063)
p1697
I00
sVcontains(anim)
p1698
I00
sVcontains(nagar)
p1699
I00
sVcontains(main)
p1700
I00
sVcontains(burgler)
p1701
I00
sVcontains(hole)
p1702
I00
sVcontains(roadsid)
p1703
I00
sVcontains(log)
p1704
I00
sVcontains(day)
p1705
I00
sVcontains(ill)
p1706
I00
sVcontains(delhi)
p1707
I00
sVcontains(drain)
p1708
I00
sVcontains(garbag)
p1709
I00
sVcontains(illeg)
p1710
I00
sVcontains(mosquito)
p1711
I00
sVcontains(medicin)
p1712
I00
sVcontains(complaint)
p1713
I00
sVcontains(sick)
p1714
I00
sg821
tp1715
a((dp1716
Vcontains(pig)
p1717
I00
sVcontains(jal)
p1718
I00
sVcontains(drainag)
p1719
I01
sVcontains(paschim)
p1720
I00
sVcontains(behind)
p1721
I00
sVcontains(suppli)
p1722
I01
sVcontains(sewer)
p1723
I00
sVcontains(problem)
p1724
I00
sVcontains(hill)
p1725
I00
sVcontains(20)
p1726
I00
sVcontains(tagor)
p1727
I00
sVcontains(wast)
p1728
I00
sVcontains(162)
p1729
I00
sVcontains(risk)
p1730
I00
sVcontains(idgah)
p1731
I00
sVcontains(leakag)
p1732
I00
sVcontains(10)
p1733
I00
sVcontains(water)
p1734
I01
sVcontains(2017)
p1735
I00
sVcontains(pacif)
p1736
I00
sVcontains(unauthoris)
p1737
I00
sVcontains(dengu)
p1738
I00
sVcontains(murder)
p1739
I00
sVcontains(sewag)
p1740
I00
sVcontains(gar)
p1741
I00
sVcontains(work)
p1742
I00
sVcontains(construct)
p1743
I00
sVcontains(mall)
p1744
I00
sVcontains(wander)
p1745
I00
sVcontains(overflow)
p1746
I00
sVcontains(thief)
p1747
I00
sVcontains(local)
p1748
I00
sVcontains(regard)
p1749
I00
sVcontains(chowk)
p1750
I00
sVcontains(state)
p1751
I00
sVcontains(7)
p1752
I00
sVcontains(bank)
p1753
I00
sVcontains(malaria)
p1754
I00
sVcontains(drink)
p1755
I01
sVcontains(high)
p1756
I00
sVcontains(\u0926\u0935\u093e)
p1757
I00
sVcontains(dog)
p1758
I00
sVcontains(menac)
p1759
I00
sVcontains(hous)
p1760
I00
sVcontains(light)
p1761
I00
sVcontains(bread)
p1762
I00
sVcontains(staircas)
p1763
I00
sVcontains(road)
p1764
I00
sVcontains(spoil)
p1765
I00
sVcontains(\u092c\u0940\u092e\u093e\u0930)
p1766
I00
sVcontains(vihar)
p1767
I00
sVcontains(robberi)
p1768
I00
sVcontains(line)
p1769
I01
sVcontains(accid)
p1770
I00
sVcontains(e)
p1771
I00
sVcontains(sinc)
p1772
I00
sVcontains(front)
p1773
I00
sVcontains(street)
p1774
I00
sVcontains(new)
p1775
I00
sVcontains(ramp)
p1776
I00
sVcontains(clear)
p1777
I00
sVcontains(110063)
p1778
I00
sVcontains(anim)
p1779
I00
sVcontains(nagar)
p1780
I00
sVcontains(main)
p1781
I00
sVcontains(burgler)
p1782
I00
sVcontains(hole)
p1783
I00
sVcontains(roadsid)
p1784
I00
sVcontains(log)
p1785
I00
sVcontains(day)
p1786
I00
sVcontains(ill)
p1787
I00
sVcontains(delhi)
p1788
I00
sVcontains(drain)
p1789
I00
sVcontains(garbag)
p1790
I00
sVcontains(illeg)
p1791
I00
sVcontains(mosquito)
p1792
I00
sVcontains(medicin)
p1793
I00
sVcontains(complaint)
p1794
I01
sVcontains(sick)
p1795
I00
sg90
tp1796
a((dp1797
Vcontains(pig)
p1798
I00
sVcontains(jal)
p1799
I00
sVcontains(drainag)
p1800
I00
sVcontains(paschim)
p1801
I00
sVcontains(behind)
p1802
I00
sVcontains(suppli)
p1803
I00
sVcontains(sewer)
p1804
I00
sVcontains(problem)
p1805
I00
sVcontains(hill)
p1806
I00
sVcontains(20)
p1807
I00
sVcontains(tagor)
p1808
I00
sVcontains(wast)
p1809
I00
sVcontains(162)
p1810
I00
sVcontains(risk)
p1811
I01
sVcontains(idgah)
p1812
I00
sVcontains(leakag)
p1813
I00
sVcontains(10)
p1814
I00
sVcontains(water)
p1815
I00
sVcontains(2017)
p1816
I00
sVcontains(pacif)
p1817
I00
sVcontains(unauthoris)
p1818
I00
sVcontains(dengu)
p1819
I01
sVcontains(murder)
p1820
I00
sVcontains(sewag)
p1821
I00
sVcontains(gar)
p1822
I00
sVcontains(work)
p1823
I00
sVcontains(construct)
p1824
I00
sVcontains(mall)
p1825
I00
sVcontains(wander)
p1826
I00
sVcontains(overflow)
p1827
I01
sVcontains(thief)
p1828
I00
sVcontains(local)
p1829
I00
sVcontains(regard)
p1830
I00
sVcontains(chowk)
p1831
I00
sVcontains(state)
p1832
I00
sVcontains(7)
p1833
I00
sVcontains(bank)
p1834
I00
sVcontains(malaria)
p1835
I01
sVcontains(drink)
p1836
I00
sVcontains(high)
p1837
I01
sVcontains(\u0926\u0935\u093e)
p1838
I00
sVcontains(dog)
p1839
I00
sVcontains(menac)
p1840
I00
sVcontains(hous)
p1841
I00
sVcontains(light)
p1842
I00
sVcontains(bread)
p1843
I01
sVcontains(staircas)
p1844
I00
sVcontains(road)
p1845
I00
sVcontains(spoil)
p1846
I00
sVcontains(\u092c\u0940\u092e\u093e\u0930)
p1847
I00
sVcontains(vihar)
p1848
I00
sVcontains(robberi)
p1849
I00
sVcontains(line)
p1850
I00
sVcontains(accid)
p1851
I00
sVcontains(e)
p1852
I00
sVcontains(sinc)
p1853
I00
sVcontains(front)
p1854
I00
sVcontains(street)
p1855
I00
sVcontains(new)
p1856
I00
sVcontains(ramp)
p1857
I00
sVcontains(clear)
p1858
I00
sVcontains(110063)
p1859
I00
sVcontains(anim)
p1860
I00
sVcontains(nagar)
p1861
I00
sVcontains(main)
p1862
I00
sVcontains(burgler)
p1863
I00
sVcontains(hole)
p1864
I00
sVcontains(roadsid)
p1865
I00
sVcontains(log)
p1866
I00
sVcontains(day)
p1867
I00
sVcontains(ill)
p1868
I00
sVcontains(delhi)
p1869
I00
sVcontains(drain)
p1870
I01
sVcontains(garbag)
p1871
I00
sVcontains(illeg)
p1872
I00
sVcontains(mosquito)
p1873
I01
sVcontains(medicin)
p1874
I00
sVcontains(complaint)
p1875
I00
sVcontains(sick)
p1876
I00
sg821
tp1877
a((dp1878
Vcontains(pig)
p1879
I00
sVcontains(jal)
p1880
I00
sVcontains(drainag)
p1881
I00
sVcontains(paschim)
p1882
I00
sVcontains(behind)
p1883
I00
sVcontains(suppli)
p1884
I00
sVcontains(sewer)
p1885
I00
sVcontains(problem)
p1886
I00
sVcontains(hill)
p1887
I00
sVcontains(20)
p1888
I01
sVcontains(tagor)
p1889
I00
sVcontains(wast)
p1890
I00
sVcontains(162)
p1891
I00
sVcontains(risk)
p1892
I00
sVcontains(idgah)
p1893
I00
sVcontains(leakag)
p1894
I00
sVcontains(10)
p1895
I01
sVcontains(water)
p1896
I00
sVcontains(2017)
p1897
I01
sVcontains(pacif)
p1898
I00
sVcontains(unauthoris)
p1899
I00
sVcontains(dengu)
p1900
I00
sVcontains(murder)
p1901
I00
sVcontains(sewag)
p1902
I00
sVcontains(gar)
p1903
I00
sVcontains(work)
p1904
I01
sVcontains(construct)
p1905
I00
sVcontains(mall)
p1906
I00
sVcontains(wander)
p1907
I00
sVcontains(overflow)
p1908
I00
sVcontains(thief)
p1909
I00
sVcontains(local)
p1910
I00
sVcontains(regard)
p1911
I00
sVcontains(chowk)
p1912
I00
sVcontains(state)
p1913
I00
sVcontains(7)
p1914
I01
sVcontains(bank)
p1915
I00
sVcontains(malaria)
p1916
I00
sVcontains(drink)
p1917
I00
sVcontains(high)
p1918
I00
sVcontains(\u0926\u0935\u093e)
p1919
I00
sVcontains(dog)
p1920
I00
sVcontains(menac)
p1921
I00
sVcontains(hous)
p1922
I00
sVcontains(light)
p1923
I01
sVcontains(bread)
p1924
I00
sVcontains(staircas)
p1925
I00
sVcontains(road)
p1926
I00
sVcontains(spoil)
p1927
I00
sVcontains(\u092c\u0940\u092e\u093e\u0930)
p1928
I00
sVcontains(vihar)
p1929
I00
sVcontains(robberi)
p1930
I00
sVcontains(line)
p1931
I00
sVcontains(accid)
p1932
I00
sVcontains(e)
p1933
I01
sVcontains(sinc)
p1934
I01
sVcontains(front)
p1935
I00
sVcontains(street)
p1936
I01
sVcontains(new)
p1937
I00
sVcontains(ramp)
p1938
I00
sVcontains(clear)
p1939
I00
sVcontains(110063)
p1940
I00
sVcontains(anim)
p1941
I00
sVcontains(nagar)
p1942
I00
sVcontains(main)
p1943
I00
sVcontains(burgler)
p1944
I00
sVcontains(hole)
p1945
I00
sVcontains(roadsid)
p1946
I00
sVcontains(log)
p1947
I00
sVcontains(day)
p1948
I01
sVcontains(ill)
p1949
I00
sVcontains(delhi)
p1950
I00
sVcontains(drain)
p1951
I00
sVcontains(garbag)
p1952
I00
sVcontains(illeg)
p1953
I00
sVcontains(mosquito)
p1954
I00
sVcontains(medicin)
p1955
I00
sVcontains(complaint)
p1956
I00
sVcontains(sick)
p1957
I00
sS'municipal'
p1958
tp1959
a((dp1960
Vcontains(pig)
p1961
I00
sVcontains(jal)
p1962
I00
sVcontains(drainag)
p1963
I00
sVcontains(paschim)
p1964
I00
sVcontains(behind)
p1965
I00
sVcontains(suppli)
p1966
I00
sVcontains(sewer)
p1967
I00
sVcontains(problem)
p1968
I00
sVcontains(hill)
p1969
I00
sVcontains(20)
p1970
I00
sVcontains(tagor)
p1971
I00
sVcontains(wast)
p1972
I00
sVcontains(162)
p1973
I00
sVcontains(risk)
p1974
I00
sVcontains(idgah)
p1975
I00
sVcontains(leakag)
p1976
I00
sVcontains(10)
p1977
I00
sVcontains(water)
p1978
I00
sVcontains(2017)
p1979
I00
sVcontains(pacif)
p1980
I00
sVcontains(unauthoris)
p1981
I00
sVcontains(dengu)
p1982
I00
sVcontains(murder)
p1983
I00
sVcontains(sewag)
p1984
I00
sVcontains(gar)
p1985
I00
sVcontains(work)
p1986
I00
sVcontains(construct)
p1987
I00
sVcontains(mall)
p1988
I00
sVcontains(wander)
p1989
I00
sVcontains(overflow)
p1990
I00
sVcontains(thief)
p1991
I00
sVcontains(local)
p1992
I00
sVcontains(regard)
p1993
I01
sVcontains(chowk)
p1994
I00
sVcontains(state)
p1995
I00
sVcontains(7)
p1996
I00
sVcontains(bank)
p1997
I00
sVcontains(malaria)
p1998
I00
sVcontains(drink)
p1999
I00
sVcontains(high)
p2000
I00
sVcontains(\u0926\u0935\u093e)
p2001
I00
sVcontains(dog)
p2002
I00
sVcontains(menac)
p2003
I00
sVcontains(hous)
p2004
I00
sVcontains(light)
p2005
I01
sVcontains(bread)
p2006
I00
sVcontains(staircas)
p2007
I00
sVcontains(road)
p2008
I00
sVcontains(spoil)
p2009
I00
sVcontains(\u092c\u0940\u092e\u093e\u0930)
p2010
I00
sVcontains(vihar)
p2011
I00
sVcontains(robberi)
p2012
I00
sVcontains(line)
p2013
I00
sVcontains(accid)
p2014
I00
sVcontains(e)
p2015
I00
sVcontains(sinc)
p2016
I00
sVcontains(front)
p2017
I00
sVcontains(street)
p2018
I01
sVcontains(new)
p2019
I00
sVcontains(ramp)
p2020
I00
sVcontains(clear)
p2021
I00
sVcontains(110063)
p2022
I00
sVcontains(anim)
p2023
I00
sVcontains(nagar)
p2024
I00
sVcontains(main)
p2025
I00
sVcontains(burgler)
p2026
I00
sVcontains(hole)
p2027
I00
sVcontains(roadsid)
p2028
I00
sVcontains(log)
p2029
I00
sVcontains(day)
p2030
I00
sVcontains(ill)
p2031
I00
sVcontains(delhi)
p2032
I00
sVcontains(drain)
p2033
I00
sVcontains(garbag)
p2034
I00
sVcontains(illeg)
p2035
I00
sVcontains(mosquito)
p2036
I00
sVcontains(medicin)
p2037
I00
sVcontains(complaint)
p2038
I01
sVcontains(sick)
p2039
I00
sg1146
tp2040
a((dp2041
Vcontains(pig)
p2042
I01
sVcontains(jal)
p2043
I00
sVcontains(drainag)
p2044
I00
sVcontains(paschim)
p2045
I00
sVcontains(behind)
p2046
I00
sVcontains(suppli)
p2047
I00
sVcontains(sewer)
p2048
I00
sVcontains(problem)
p2049
I00
sVcontains(hill)
p2050
I00
sVcontains(20)
p2051
I00
sVcontains(tagor)
p2052
I00
sVcontains(wast)
p2053
I00
sVcontains(162)
p2054
I00
sVcontains(risk)
p2055
I00
sVcontains(idgah)
p2056
I00
sVcontains(leakag)
p2057
I00
sVcontains(10)
p2058
I00
sVcontains(water)
p2059
I00
sVcontains(2017)
p2060
I00
sVcontains(pacif)
p2061
I00
sVcontains(unauthoris)
p2062
I00
sVcontains(dengu)
p2063
I00
sVcontains(murder)
p2064
I00
sVcontains(sewag)
p2065
I00
sVcontains(gar)
p2066
I00
sVcontains(work)
p2067
I00
sVcontains(construct)
p2068
I00
sVcontains(mall)
p2069
I00
sVcontains(wander)
p2070
I01
sVcontains(overflow)
p2071
I00
sVcontains(thief)
p2072
I00
sVcontains(local)
p2073
I01
sVcontains(regard)
p2074
I00
sVcontains(chowk)
p2075
I00
sVcontains(state)
p2076
I00
sVcontains(7)
p2077
I00
sVcontains(bank)
p2078
I00
sVcontains(malaria)
p2079
I00
sVcontains(drink)
p2080
I00
sVcontains(high)
p2081
I00
sVcontains(\u0926\u0935\u093e)
p2082
I00
sVcontains(dog)
p2083
I00
sVcontains(menac)
p2084
I00
sVcontains(hous)
p2085
I00
sVcontains(light)
p2086
I00
sVcontains(bread)
p2087
I00
sVcontains(staircas)
p2088
I00
sVcontains(road)
p2089
I00
sVcontains(spoil)
p2090
I01
sVcontains(\u092c\u0940\u092e\u093e\u0930)
p2091
I00
sVcontains(vihar)
p2092
I00
sVcontains(robberi)
p2093
I00
sVcontains(line)
p2094
I00
sVcontains(accid)
p2095
I00
sVcontains(e)
p2096
I00
sVcontains(sinc)
p2097
I00
sVcontains(front)
p2098
I00
sVcontains(street)
p2099
I00
sVcontains(new)
p2100
I00
sVcontains(ramp)
p2101
I00
sVcontains(clear)
p2102
I00
sVcontains(110063)
p2103
I00
sVcontains(anim)
p2104
I00
sVcontains(nagar)
p2105
I00
sVcontains(main)
p2106
I00
sVcontains(burgler)
p2107
I00
sVcontains(hole)
p2108
I00
sVcontains(roadsid)
p2109
I00
sVcontains(log)
p2110
I00
sVcontains(day)
p2111
I00
sVcontains(ill)
p2112
I00
sVcontains(delhi)
p2113
I00
sVcontains(drain)
p2114
I00
sVcontains(garbag)
p2115
I00
sVcontains(illeg)
p2116
I00
sVcontains(mosquito)
p2117
I00
sVcontains(medicin)
p2118
I00
sVcontains(complaint)
p2119
I00
sVcontains(sick)
p2120
I00
sS'municipal'
p2121
tp2122
a((dp2123
Vcontains(pig)
p2124
I00
sVcontains(jal)
p2125
I00
sVcontains(drainag)
p2126
I00
sVcontains(paschim)
p2127
I00
sVcontains(behind)
p2128
I00
sVcontains(suppli)
p2129
I00
sVcontains(sewer)
p2130
I00
sVcontains(problem)
p2131
I00
sVcontains(hill)
p2132
I00
sVcontains(20)
p2133
I00
sVcontains(tagor)
p2134
I00
sVcontains(wast)
p2135
I00
sVcontains(162)
p2136
I00
sVcontains(risk)
p2137
I00
sVcontains(idgah)
p2138
I00
sVcontains(leakag)
p2139
I00
sVcontains(10)
p2140
I00
sVcontains(water)
p2141
I00
sVcontains(2017)
p2142
I00
sVcontains(pacif)
p2143
I00
sVcontains(unauthoris)
p2144
I00
sVcontains(dengu)
p2145
I00
sVcontains(murder)
p2146
I00
sVcontains(sewag)
p2147
I00
sVcontains(gar)
p2148
I00
sVcontains(work)
p2149
I00
sVcontains(construct)
p2150
I00
sVcontains(mall)
p2151
I00
sVcontains(wander)
p2152
I00
sVcontains(overflow)
p2153
I00
sVcontains(thief)
p2154
I00
sVcontains(local)
p2155
I00
sVcontains(regard)
p2156
I00
sVcontains(chowk)
p2157
I00
sVcontains(state)
p2158
I00
sVcontains(7)
p2159
I00
sVcontains(bank)
p2160
I00
sVcontains(malaria)
p2161
I00
sVcontains(drink)
p2162
I00
sVcontains(high)
p2163
I00
sVcontains(\u0926\u0935\u093e)
p2164
I00
sVcontains(dog)
p2165
I01
sVcontains(menac)
p2166
I01
sVcontains(hous)
p2167
I00
sVcontains(light)
p2168
I00
sVcontains(bread)
p2169
I00
sVcontains(staircas)
p2170
I00
sVcontains(road)
p2171
I00
sVcontains(spoil)
p2172
I00
sVcontains(\u092c\u0940\u092e\u093e\u0930)
p2173
I00
sVcontains(vihar)
p2174
I00
sVcontains(robberi)
p2175
I00
sVcontains(line)
p2176
I00
sVcontains(accid)
p2177
I00
sVcontains(e)
p2178
I00
sVcontains(sinc)
p2179
I00
sVcontains(front)
p2180
I00
sVcontains(street)
p2181
I01
sVcontains(new)
p2182
I00
sVcontains(ramp)
p2183
I00
sVcontains(clear)
p2184
I00
sVcontains(110063)
p2185
I00
sVcontains(anim)
p2186
I00
sVcontains(nagar)
p2187
I00
sVcontains(main)
p2188
I00
sVcontains(burgler)
p2189
I00
sVcontains(hole)
p2190
I00
sVcontains(roadsid)
p2191
I00
sVcontains(log)
p2192
I00
sVcontains(day)
p2193
I00
sVcontains(ill)
p2194
I00
sVcontains(delhi)
p2195
I00
sVcontains(drain)
p2196
I00
sVcontains(garbag)
p2197
I00
sVcontains(illeg)
p2198
I00
sVcontains(mosquito)
p2199
I00
sVcontains(medicin)
p2200
I00
sVcontains(complaint)
p2201
I00
sVcontains(sick)
p2202
I00
sg1146
tp2203
a((dp2204
Vcontains(pig)
p2205
I00
sVcontains(jal)
p2206
I00
sVcontains(drainag)
p2207
I01
sVcontains(paschim)
p2208
I00
sVcontains(behind)
p2209
I00
sVcontains(suppli)
p2210
I01
sVcontains(sewer)
p2211
I00
sVcontains(problem)
p2212
I00
sVcontains(hill)
p2213
I00
sVcontains(20)
p2214
I00
sVcontains(tagor)
p2215
I00
sVcontains(wast)
p2216
I00
sVcontains(162)
p2217
I00
sVcontains(risk)
p2218
I00
sVcontains(idgah)
p2219
I00
sVcontains(leakag)
p2220
I00
sVcontains(10)
p2221
I00
sVcontains(water)
p2222
I01
sVcontains(2017)
p2223
I00
sVcontains(pacif)
p2224
I00
sVcontains(unauthoris)
p2225
I00
sVcontains(dengu)
p2226
I00
sVcontains(murder)
p2227
I00
sVcontains(sewag)
p2228
I00
sVcontains(gar)
p2229
I00
sVcontains(work)
p2230
I00
sVcontains(construct)
p2231
I00
sVcontains(mall)
p2232
I00
sVcontains(wander)
p2233
I00
sVcontains(overflow)
p2234
I00
sVcontains(thief)
p2235
I00
sVcontains(local)
p2236
I00
sVcontains(regard)
p2237
I00
sVcontains(chowk)
p2238
I00
sVcontains(state)
p2239
I00
sVcontains(7)
p2240
I00
sVcontains(bank)
p2241
I00
sVcontains(malaria)
p2242
I00
sVcontains(drink)
p2243
I01
sVcontains(high)
p2244
I00
sVcontains(\u0926\u0935\u093e)
p2245
I00
sVcontains(dog)
p2246
I00
sVcontains(menac)
p2247
I00
sVcontains(hous)
p2248
I00
sVcontains(light)
p2249
I00
sVcontains(bread)
p2250
I00
sVcontains(staircas)
p2251
I00
sVcontains(road)
p2252
I00
sVcontains(spoil)
p2253
I00
sVcontains(\u092c\u0940\u092e\u093e\u0930)
p2254
I00
sVcontains(vihar)
p2255
I00
sVcontains(robberi)
p2256
I00
sVcontains(line)
p2257
I01
sVcontains(accid)
p2258
I00
sVcontains(e)
p2259
I00
sVcontains(sinc)
p2260
I00
sVcontains(front)
p2261
I00
sVcontains(street)
p2262
I00
sVcontains(new)
p2263
I00
sVcontains(ramp)
p2264
I00
sVcontains(clear)
p2265
I00
sVcontains(110063)
p2266
I00
sVcontains(anim)
p2267
I00
sVcontains(nagar)
p2268
I00
sVcontains(main)
p2269
I00
sVcontains(burgler)
p2270
I00
sVcontains(hole)
p2271
I00
sVcontains(roadsid)
p2272
I00
sVcontains(log)
p2273
I00
sVcontains(day)
p2274
I00
sVcontains(ill)
p2275
I00
sVcontains(delhi)
p2276
I00
sVcontains(drain)
p2277
I00
sVcontains(garbag)
p2278
I00
sVcontains(illeg)
p2279
I00
sVcontains(mosquito)
p2280
I00
sVcontains(medicin)
p2281
I00
sVcontains(complaint)
p2282
I01
sVcontains(sick)
p2283
I00
sg90
tp2284
a((dp2285
Vcontains(pig)
p2286
I00
sVcontains(jal)
p2287
I00
sVcontains(drainag)
p2288
I00
sVcontains(paschim)
p2289
I00
sVcontains(behind)
p2290
I00
sVcontains(suppli)
p2291
I00
sVcontains(sewer)
p2292
I00
sVcontains(problem)
p2293
I00
sVcontains(hill)
p2294
I00
sVcontains(20)
p2295
I00
sVcontains(tagor)
p2296
I00
sVcontains(wast)
p2297
I00
sVcontains(162)
p2298
I00
sVcontains(risk)
p2299
I01
sVcontains(idgah)
p2300
I00
sVcontains(leakag)
p2301
I00
sVcontains(10)
p2302
I00
sVcontains(water)
p2303
I00
sVcontains(2017)
p2304
I00
sVcontains(pacif)
p2305
I00
sVcontains(unauthoris)
p2306
I00
sVcontains(dengu)
p2307
I01
sVcontains(murder)
p2308
I00
sVcontains(sewag)
p2309
I00
sVcontains(gar)
p2310
I00
sVcontains(work)
p2311
I00
sVcontains(construct)
p2312
I00
sVcontains(mall)
p2313
I00
sVcontains(wander)
p2314
I00
sVcontains(overflow)
p2315
I01
sVcontains(thief)
p2316
I00
sVcontains(local)
p2317
I00
sVcontains(regard)
p2318
I00
sVcontains(chowk)
p2319
I00
sVcontains(state)
p2320
I00
sVcontains(7)
p2321
I00
sVcontains(bank)
p2322
I00
sVcontains(malaria)
p2323
I01
sVcontains(drink)
p2324
I00
sVcontains(high)
p2325
I01
sVcontains(\u0926\u0935\u093e)
p2326
I00
sVcontains(dog)
p2327
I00
sVcontains(menac)
p2328
I00
sVcontains(hous)
p2329
I00
sVcontains(light)
p2330
I00
sVcontains(bread)
p2331
I01
sVcontains(staircas)
p2332
I00
sVcontains(road)
p2333
I00
sVcontains(spoil)
p2334
I00
sVcontains(\u092c\u0940\u092e\u093e\u0930)
p2335
I00
sVcontains(vihar)
p2336
I00
sVcontains(robberi)
p2337
I00
sVcontains(line)
p2338
I00
sVcontains(accid)
p2339
I00
sVcontains(e)
p2340
I00
sVcontains(sinc)
p2341
I00
sVcontains(front)
p2342
I00
sVcontains(street)
p2343
I00
sVcontains(new)
p2344
I00
sVcontains(ramp)
p2345
I00
sVcontains(clear)
p2346
I00
sVcontains(110063)
p2347
I00
sVcontains(anim)
p2348
I00
sVcontains(nagar)
p2349
I00
sVcontains(main)
p2350
I00
sVcontains(burgler)
p2351
I00
sVcontains(hole)
p2352
I00
sVcontains(roadsid)
p2353
I00
sVcontains(log)
p2354
I00
sVcontains(day)
p2355
I00
sVcontains(ill)
p2356
I00
sVcontains(delhi)
p2357
I00
sVcontains(drain)
p2358
I01
sVcontains(garbag)
p2359
I00
sVcontains(illeg)
p2360
I00
sVcontains(mosquito)
p2361
I01
sVcontains(medicin)
p2362
I00
sVcontains(complaint)
p2363
I00
sVcontains(sick)
p2364
I00
sS'water'
p2365
tp2366
a((dp2367
Vcontains(pig)
p2368
I00
sVcontains(jal)
p2369
I00
sVcontains(drainag)
p2370
I00
sVcontains(paschim)
p2371
I00
sVcontains(behind)
p2372
I00
sVcontains(suppli)
p2373
I00
sVcontains(sewer)
p2374
I00
sVcontains(problem)
p2375
I00
sVcontains(hill)
p2376
I00
sVcontains(20)
p2377
I01
sVcontains(tagor)
p2378
I00
sVcontains(wast)
p2379
I00
sVcontains(162)
p2380
I00
sVcontains(risk)
p2381
I00
sVcontains(idgah)
p2382
I00
sVcontains(leakag)
p2383
I00
sVcontains(10)
p2384
I01
sVcontains(water)
p2385
I00
sVcontains(2017)
p2386
I01
sVcontains(pacif)
p2387
I00
sVcontains(unauthoris)
p2388
I00
sVcontains(dengu)
p2389
I00
sVcontains(murder)
p2390
I00
sVcontains(sewag)
p2391
I00
sVcontains(gar)
p2392
I00
sVcontains(work)
p2393
I01
sVcontains(construct)
p2394
I00
sVcontains(mall)
p2395
I00
sVcontains(wander)
p2396
I00
sVcontains(overflow)
p2397
I00
sVcontains(thief)
p2398
I00
sVcontains(local)
p2399
I00
sVcontains(regard)
p2400
I00
sVcontains(chowk)
p2401
I00
sVcontains(state)
p2402
I00
sVcontains(7)
p2403
I01
sVcontains(bank)
p2404
I00
sVcontains(malaria)
p2405
I00
sVcontains(drink)
p2406
I00
sVcontains(high)
p2407
I00
sVcontains(\u0926\u0935\u093e)
p2408
I00
sVcontains(dog)
p2409
I00
sVcontains(menac)
p2410
I00
sVcontains(hous)
p2411
I00
sVcontains(light)
p2412
I01
sVcontains(bread)
p2413
I00
sVcontains(staircas)
p2414
I00
sVcontains(road)
p2415
I00
sVcontains(spoil)
p2416
I00
sVcontains(\u092c\u0940\u092e\u093e\u0930)
p2417
I00
sVcontains(vihar)
p2418
I00
sVcontains(robberi)
p2419
I00
sVcontains(line)
p2420
I00
sVcontains(accid)
p2421
I00
sVcontains(e)
p2422
I01
sVcontains(sinc)
p2423
I01
sVcontains(front)
p2424
I00
sVcontains(street)
p2425
I01
sVcontains(new)
p2426
I00
sVcontains(ramp)
p2427
I00
sVcontains(clear)
p2428
I00
sVcontains(110063)
p2429
I00
sVcontains(anim)
p2430
I00
sVcontains(nagar)
p2431
I00
sVcontains(main)
p2432
I00
sVcontains(burgler)
p2433
I00
sVcontains(hole)
p2434
I00
sVcontains(roadsid)
p2435
I00
sVcontains(log)
p2436
I00
sVcontains(day)
p2437
I01
sVcontains(ill)
p2438
I00
sVcontains(delhi)
p2439
I00
sVcontains(drain)
p2440
I00
sVcontains(garbag)
p2441
I00
sVcontains(illeg)
p2442
I00
sVcontains(mosquito)
p2443
I00
sVcontains(medicin)
p2444
I00
sVcontains(complaint)
p2445
I00
sVcontains(sick)
p2446
I00
sg1146
tp2447
a((dp2448
Vcontains(pig)
p2449
I00
sVcontains(jal)
p2450
I00
sVcontains(drainag)
p2451
I00
sVcontains(paschim)
p2452
I00
sVcontains(behind)
p2453
I00
sVcontains(suppli)
p2454
I00
sVcontains(sewer)
p2455
I00
sVcontains(problem)
p2456
I00
sVcontains(hill)
p2457
I00
sVcontains(20)
p2458
I00
sVcontains(tagor)
p2459
I00
sVcontains(wast)
p2460
I00
sVcontains(162)
p2461
I00
sVcontains(risk)
p2462
I00
sVcontains(idgah)
p2463
I00
sVcontains(leakag)
p2464
I00
sVcontains(10)
p2465
I00
sVcontains(water)
p2466
I00
sVcontains(2017)
p2467
I00
sVcontains(pacif)
p2468
I00
sVcontains(unauthoris)
p2469
I00
sVcontains(dengu)
p2470
I00
sVcontains(murder)
p2471
I00
sVcontains(sewag)
p2472
I00
sVcontains(gar)
p2473
I00
sVcontains(work)
p2474
I00
sVcontains(construct)
p2475
I00
sVcontains(mall)
p2476
I00
sVcontains(wander)
p2477
I00
sVcontains(overflow)
p2478
I00
sVcontains(thief)
p2479
I00
sVcontains(local)
p2480
I00
sVcontains(regard)
p2481
I01
sVcontains(chowk)
p2482
I00
sVcontains(state)
p2483
I00
sVcontains(7)
p2484
I00
sVcontains(bank)
p2485
I00
sVcontains(malaria)
p2486
I00
sVcontains(drink)
p2487
I00
sVcontains(high)
p2488
I00
sVcontains(\u0926\u0935\u093e)
p2489
I00
sVcontains(dog)
p2490
I00
sVcontains(menac)
p2491
I00
sVcontains(hous)
p2492
I00
sVcontains(light)
p2493
I01
sVcontains(bread)
p2494
I00
sVcontains(staircas)
p2495
I00
sVcontains(road)
p2496
I00
sVcontains(spoil)
p2497
I00
sVcontains(\u092c\u0940\u092e\u093e\u0930)
p2498
I00
sVcontains(vihar)
p2499
I00
sVcontains(robberi)
p2500
I00
sVcontains(line)
p2501
I00
sVcontains(accid)
p2502
I00
sVcontains(e)
p2503
I00
sVcontains(sinc)
p2504
I00
sVcontains(front)
p2505
I00
sVcontains(street)
p2506
I01
sVcontains(new)
p2507
I00
sVcontains(ramp)
p2508
I00
sVcontains(clear)
p2509
I00
sVcontains(110063)
p2510
I00
sVcontains(anim)
p2511
I00
sVcontains(nagar)
p2512
I00
sVcontains(main)
p2513
I00
sVcontains(burgler)
p2514
I00
sVcontains(hole)
p2515
I00
sVcontains(roadsid)
p2516
I00
sVcontains(log)
p2517
I00
sVcontains(day)
p2518
I00
sVcontains(ill)
p2519
I00
sVcontains(delhi)
p2520
I00
sVcontains(drain)
p2521
I00
sVcontains(garbag)
p2522
I00
sVcontains(illeg)
p2523
I00
sVcontains(mosquito)
p2524
I00
sVcontains(medicin)
p2525
I00
sVcontains(complaint)
p2526
I01
sVcontains(sick)
p2527
I00
sg1146
tp2528
a((dp2529
Vcontains(pig)
p2530
I01
sVcontains(jal)
p2531
I00
sVcontains(drainag)
p2532
I00
sVcontains(paschim)
p2533
I00
sVcontains(behind)
p2534
I00
sVcontains(suppli)
p2535
I00
sVcontains(sewer)
p2536
I00
sVcontains(problem)
p2537
I00
sVcontains(hill)
p2538
I00
sVcontains(20)
p2539
I00
sVcontains(tagor)
p2540
I00
sVcontains(wast)
p2541
I00
sVcontains(162)
p2542
I00
sVcontains(risk)
p2543
I00
sVcontains(idgah)
p2544
I00
sVcontains(leakag)
p2545
I00
sVcontains(10)
p2546
I00
sVcontains(water)
p2547
I00
sVcontains(2017)
p2548
I00
sVcontains(pacif)
p2549
I00
sVcontains(unauthoris)
p2550
I00
sVcontains(dengu)
p2551
I00
sVcontains(murder)
p2552
I00
sVcontains(sewag)
p2553
I00
sVcontains(gar)
p2554
I00
sVcontains(work)
p2555
I00
sVcontains(construct)
p2556
I00
sVcontains(mall)
p2557
I00
sVcontains(wander)
p2558
I01
sVcontains(overflow)
p2559
I00
sVcontains(thief)
p2560
I00
sVcontains(local)
p2561
I01
sVcontains(regard)
p2562
I00
sVcontains(chowk)
p2563
I00
sVcontains(state)
p2564
I00
sVcontains(7)
p2565
I00
sVcontains(bank)
p2566
I00
sVcontains(malaria)
p2567
I00
sVcontains(drink)
p2568
I00
sVcontains(high)
p2569
I00
sVcontains(\u0926\u0935\u093e)
p2570
I00
sVcontains(dog)
p2571
I00
sVcontains(menac)
p2572
I00
sVcontains(hous)
p2573
I00
sVcontains(light)
p2574
I00
sVcontains(bread)
p2575
I00
sVcontains(staircas)
p2576
I00
sVcontains(road)
p2577
I00
sVcontains(spoil)
p2578
I01
sVcontains(\u092c\u0940\u092e\u093e\u0930)
p2579
I00
sVcontains(vihar)
p2580
I00
sVcontains(robberi)
p2581
I00
sVcontains(line)
p2582
I00
sVcontains(accid)
p2583
I00
sVcontains(e)
p2584
I00
sVcontains(sinc)
p2585
I00
sVcontains(front)
p2586
I00
sVcontains(street)
p2587
I00
sVcontains(new)
p2588
I00
sVcontains(ramp)
p2589
I00
sVcontains(clear)
p2590
I00
sVcontains(110063)
p2591
I00
sVcontains(anim)
p2592
I00
sVcontains(nagar)
p2593
I00
sVcontains(main)
p2594
I00
sVcontains(burgler)
p2595
I00
sVcontains(hole)
p2596
I00
sVcontains(roadsid)
p2597
I00
sVcontains(log)
p2598
I00
sVcontains(day)
p2599
I00
sVcontains(ill)
p2600
I00
sVcontains(delhi)
p2601
I00
sVcontains(drain)
p2602
I00
sVcontains(garbag)
p2603
I00
sVcontains(illeg)
p2604
I00
sVcontains(mosquito)
p2605
I00
sVcontains(medicin)
p2606
I00
sVcontains(complaint)
p2607
I00
sVcontains(sick)
p2608
I00
sg1146
tp2609
a((dp2610
Vcontains(pig)
p2611
I00
sVcontains(jal)
p2612
I00
sVcontains(drainag)
p2613
I00
sVcontains(paschim)
p2614
I00
sVcontains(behind)
p2615
I00
sVcontains(suppli)
p2616
I00
sVcontains(sewer)
p2617
I00
sVcontains(problem)
p2618
I00
sVcontains(hill)
p2619
I00
sVcontains(20)
p2620
I00
sVcontains(tagor)
p2621
I00
sVcontains(wast)
p2622
I00
sVcontains(162)
p2623
I00
sVcontains(risk)
p2624
I00
sVcontains(idgah)
p2625
I00
sVcontains(leakag)
p2626
I00
sVcontains(10)
p2627
I00
sVcontains(water)
p2628
I00
sVcontains(2017)
p2629
I00
sVcontains(pacif)
p2630
I00
sVcontains(unauthoris)
p2631
I00
sVcontains(dengu)
p2632
I00
sVcontains(murder)
p2633
I00
sVcontains(sewag)
p2634
I00
sVcontains(gar)
p2635
I00
sVcontains(work)
p2636
I00
sVcontains(construct)
p2637
I00
sVcontains(mall)
p2638
I00
sVcontains(wander)
p2639
I00
sVcontains(overflow)
p2640
I00
sVcontains(thief)
p2641
I00
sVcontains(local)
p2642
I00
sVcontains(regard)
p2643
I00
sVcontains(chowk)
p2644
I00
sVcontains(state)
p2645
I00
sVcontains(7)
p2646
I00
sVcontains(bank)
p2647
I00
sVcontains(malaria)
p2648
I00
sVcontains(drink)
p2649
I00
sVcontains(high)
p2650
I00
sVcontains(\u0926\u0935\u093e)
p2651
I00
sVcontains(dog)
p2652
I01
sVcontains(menac)
p2653
I01
sVcontains(hous)
p2654
I00
sVcontains(light)
p2655
I00
sVcontains(bread)
p2656
I00
sVcontains(staircas)
p2657
I00
sVcontains(road)
p2658
I00
sVcontains(spoil)
p2659
I00
sVcontains(\u092c\u0940\u092e\u093e\u0930)
p2660
I00
sVcontains(vihar)
p2661
I00
sVcontains(robberi)
p2662
I00
sVcontains(line)
p2663
I00
sVcontains(accid)
p2664
I00
sVcontains(e)
p2665
I00
sVcontains(sinc)
p2666
I00
sVcontains(front)
p2667
I00
sVcontains(street)
p2668
I01
sVcontains(new)
p2669
I00
sVcontains(ramp)
p2670
I00
sVcontains(clear)
p2671
I00
sVcontains(110063)
p2672
I00
sVcontains(anim)
p2673
I00
sVcontains(nagar)
p2674
I00
sVcontains(main)
p2675
I00
sVcontains(burgler)
p2676
I00
sVcontains(hole)
p2677
I00
sVcontains(roadsid)
p2678
I00
sVcontains(log)
p2679
I00
sVcontains(day)
p2680
I00
sVcontains(ill)
p2681
I00
sVcontains(delhi)
p2682
I00
sVcontains(drain)
p2683
I00
sVcontains(garbag)
p2684
I00
sVcontains(illeg)
p2685
I00
sVcontains(mosquito)
p2686
I00
sVcontains(medicin)
p2687
I00
sVcontains(complaint)
p2688
I00
sVcontains(sick)
p2689
I00
sg1146
tp2690
a((dp2691
Vcontains(pig)
p2692
I00
sVcontains(jal)
p2693
I00
sVcontains(drainag)
p2694
I00
sVcontains(paschim)
p2695
I00
sVcontains(behind)
p2696
I01
sVcontains(suppli)
p2697
I00
sVcontains(sewer)
p2698
I00
sVcontains(problem)
p2699
I00
sVcontains(hill)
p2700
I00
sVcontains(20)
p2701
I00
sVcontains(tagor)
p2702
I01
sVcontains(wast)
p2703
I00
sVcontains(162)
p2704
I00
sVcontains(risk)
p2705
I00
sVcontains(idgah)
p2706
I00
sVcontains(leakag)
p2707
I00
sVcontains(10)
p2708
I00
sVcontains(water)
p2709
I00
sVcontains(2017)
p2710
I00
sVcontains(pacif)
p2711
I01
sVcontains(unauthoris)
p2712
I00
sVcontains(dengu)
p2713
I00
sVcontains(murder)
p2714
I00
sVcontains(sewag)
p2715
I00
sVcontains(gar)
p2716
I01
sVcontains(work)
p2717
I00
sVcontains(construct)
p2718
I01
sVcontains(mall)
p2719
I01
sVcontains(wander)
p2720
I00
sVcontains(overflow)
p2721
I00
sVcontains(thief)
p2722
I00
sVcontains(local)
p2723
I00
sVcontains(regard)
p2724
I00
sVcontains(chowk)
p2725
I00
sVcontains(state)
p2726
I00
sVcontains(7)
p2727
I00
sVcontains(bank)
p2728
I00
sVcontains(malaria)
p2729
I00
sVcontains(drink)
p2730
I00
sVcontains(high)
p2731
I00
sVcontains(\u0926\u0935\u093e)
p2732
I00
sVcontains(dog)
p2733
I00
sVcontains(menac)
p2734
I00
sVcontains(hous)
p2735
I01
sVcontains(light)
p2736
I00
sVcontains(bread)
p2737
I00
sVcontains(staircas)
p2738
I00
sVcontains(road)
p2739
I00
sVcontains(spoil)
p2740
I00
sVcontains(\u092c\u0940\u092e\u093e\u0930)
p2741
I00
sVcontains(vihar)
p2742
I00
sVcontains(robberi)
p2743
I00
sVcontains(line)
p2744
I00
sVcontains(accid)
p2745
I00
sVcontains(e)
p2746
I00
sVcontains(sinc)
p2747
I00
sVcontains(front)
p2748
I00
sVcontains(street)
p2749
I00
sVcontains(new)
p2750
I00
sVcontains(ramp)
p2751
I00
sVcontains(clear)
p2752
I00
sVcontains(110063)
p2753
I00
sVcontains(anim)
p2754
I00
sVcontains(nagar)
p2755
I00
sVcontains(main)
p2756
I00
sVcontains(burgler)
p2757
I00
sVcontains(hole)
p2758
I00
sVcontains(roadsid)
p2759
I00
sVcontains(log)
p2760
I00
sVcontains(day)
p2761
I00
sVcontains(ill)
p2762
I00
sVcontains(delhi)
p2763
I00
sVcontains(drain)
p2764
I00
sVcontains(garbag)
p2765
I00
sVcontains(illeg)
p2766
I01
sVcontains(mosquito)
p2767
I00
sVcontains(medicin)
p2768
I00
sVcontains(complaint)
p2769
I00
sVcontains(sick)
p2770
I00
sg496
tp2771
a((dp2772
Vcontains(pig)
p2773
I00
sVcontains(jal)
p2774
I00
sVcontains(drainag)
p2775
I00
sVcontains(paschim)
p2776
I00
sVcontains(behind)
p2777
I00
sVcontains(suppli)
p2778
I00
sVcontains(sewer)
p2779
I00
sVcontains(problem)
p2780
I01
sVcontains(hill)
p2781
I00
sVcontains(20)
p2782
I00
sVcontains(tagor)
p2783
I00
sVcontains(wast)
p2784
I00
sVcontains(162)
p2785
I00
sVcontains(risk)
p2786
I00
sVcontains(idgah)
p2787
I00
sVcontains(leakag)
p2788
I00
sVcontains(10)
p2789
I00
sVcontains(water)
p2790
I00
sVcontains(2017)
p2791
I00
sVcontains(pacif)
p2792
I00
sVcontains(unauthoris)
p2793
I00
sVcontains(dengu)
p2794
I00
sVcontains(murder)
p2795
I00
sVcontains(sewag)
p2796
I00
sVcontains(gar)
p2797
I00
sVcontains(work)
p2798
I00
sVcontains(construct)
p2799
I00
sVcontains(mall)
p2800
I00
sVcontains(wander)
p2801
I00
sVcontains(overflow)
p2802
I00
sVcontains(thief)
p2803
I00
sVcontains(local)
p2804
I00
sVcontains(regard)
p2805
I00
sVcontains(chowk)
p2806
I00
sVcontains(state)
p2807
I00
sVcontains(7)
p2808
I00
sVcontains(bank)
p2809
I00
sVcontains(malaria)
p2810
I00
sVcontains(drink)
p2811
I00
sVcontains(high)
p2812
I00
sVcontains(\u0926\u0935\u093e)
p2813
I00
sVcontains(dog)
p2814
I00
sVcontains(menac)
p2815
I00
sVcontains(hous)
p2816
I00
sVcontains(light)
p2817
I00
sVcontains(bread)
p2818
I00
sVcontains(staircas)
p2819
I00
sVcontains(road)
p2820
I00
sVcontains(spoil)
p2821
I00
sVcontains(\u092c\u0940\u092e\u093e\u0930)
p2822
I00
sVcontains(vihar)
p2823
I00
sVcontains(robberi)
p2824
I00
sVcontains(line)
p2825
I00
sVcontains(accid)
p2826
I00
sVcontains(e)
p2827
I00
sVcontains(sinc)
p2828
I00
sVcontains(front)
p2829
I00
sVcontains(street)
p2830
I00
sVcontains(new)
p2831
I00
sVcontains(ramp)
p2832
I00
sVcontains(clear)
p2833
I01
sVcontains(110063)
p2834
I00
sVcontains(anim)
p2835
I00
sVcontains(nagar)
p2836
I00
sVcontains(main)
p2837
I00
sVcontains(burgler)
p2838
I00
sVcontains(hole)
p2839
I00
sVcontains(roadsid)
p2840
I00
sVcontains(log)
p2841
I00
sVcontains(day)
p2842
I00
sVcontains(ill)
p2843
I00
sVcontains(delhi)
p2844
I00
sVcontains(drain)
p2845
I00
sVcontains(garbag)
p2846
I01
sVcontains(illeg)
p2847
I00
sVcontains(mosquito)
p2848
I00
sVcontains(medicin)
p2849
I00
sVcontains(complaint)
p2850
I00
sVcontains(sick)
p2851
I00
sg1146
tp2852
a((dp2853
Vcontains(pig)
p2854
I00
sVcontains(jal)
p2855
I00
sVcontains(drainag)
p2856
I00
sVcontains(paschim)
p2857
I00
sVcontains(behind)
p2858
I00
sVcontains(suppli)
p2859
I00
sVcontains(sewer)
p2860
I00
sVcontains(problem)
p2861
I00
sVcontains(hill)
p2862
I00
sVcontains(20)
p2863
I00
sVcontains(tagor)
p2864
I00
sVcontains(wast)
p2865
I00
sVcontains(162)
p2866
I00
sVcontains(risk)
p2867
I00
sVcontains(idgah)
p2868
I00
sVcontains(leakag)
p2869
I00
sVcontains(10)
p2870
I00
sVcontains(water)
p2871
I00
sVcontains(2017)
p2872
I00
sVcontains(pacif)
p2873
I00
sVcontains(unauthoris)
p2874
I00
sVcontains(dengu)
p2875
I00
sVcontains(murder)
p2876
I00
sVcontains(sewag)
p2877
I00
sVcontains(gar)
p2878
I00
sVcontains(work)
p2879
I00
sVcontains(construct)
p2880
I00
sVcontains(mall)
p2881
I00
sVcontains(wander)
p2882
I00
sVcontains(overflow)
p2883
I00
sVcontains(thief)
p2884
I00
sVcontains(local)
p2885
I00
sVcontains(regard)
p2886
I00
sVcontains(chowk)
p2887
I01
sVcontains(state)
p2888
I00
sVcontains(7)
p2889
I00
sVcontains(bank)
p2890
I00
sVcontains(malaria)
p2891
I00
sVcontains(drink)
p2892
I00
sVcontains(high)
p2893
I00
sVcontains(\u0926\u0935\u093e)
p2894
I00
sVcontains(dog)
p2895
I00
sVcontains(menac)
p2896
I00
sVcontains(hous)
p2897
I00
sVcontains(light)
p2898
I00
sVcontains(bread)
p2899
I00
sVcontains(staircas)
p2900
I00
sVcontains(road)
p2901
I00
sVcontains(spoil)
p2902
I00
sVcontains(\u092c\u0940\u092e\u093e\u0930)
p2903
I00
sVcontains(vihar)
p2904
I00
sVcontains(robberi)
p2905
I00
sVcontains(line)
p2906
I00
sVcontains(accid)
p2907
I00
sVcontains(e)
p2908
I00
sVcontains(sinc)
p2909
I00
sVcontains(front)
p2910
I00
sVcontains(street)
p2911
I00
sVcontains(new)
p2912
I00
sVcontains(ramp)
p2913
I00
sVcontains(clear)
p2914
I00
sVcontains(110063)
p2915
I00
sVcontains(anim)
p2916
I00
sVcontains(nagar)
p2917
I00
sVcontains(main)
p2918
I01
sVcontains(burgler)
p2919
I00
sVcontains(hole)
p2920
I01
sVcontains(roadsid)
p2921
I00
sVcontains(log)
p2922
I00
sVcontains(day)
p2923
I00
sVcontains(ill)
p2924
I00
sVcontains(delhi)
p2925
I00
sVcontains(drain)
p2926
I00
sVcontains(garbag)
p2927
I00
sVcontains(illeg)
p2928
I00
sVcontains(mosquito)
p2929
I00
sVcontains(medicin)
p2930
I00
sVcontains(complaint)
p2931
I00
sVcontains(sick)
p2932
I00
sg1146
tp2933
a((dp2934
Vcontains(pig)
p2935
I00
sVcontains(jal)
p2936
I00
sVcontains(drainag)
p2937
I00
sVcontains(paschim)
p2938
I01
sVcontains(behind)
p2939
I00
sVcontains(suppli)
p2940
I00
sVcontains(sewer)
p2941
I00
sVcontains(problem)
p2942
I00
sVcontains(hill)
p2943
I00
sVcontains(20)
p2944
I00
sVcontains(tagor)
p2945
I00
sVcontains(wast)
p2946
I00
sVcontains(162)
p2947
I01
sVcontains(risk)
p2948
I00
sVcontains(idgah)
p2949
I00
sVcontains(leakag)
p2950
I00
sVcontains(10)
p2951
I00
sVcontains(water)
p2952
I00
sVcontains(2017)
p2953
I00
sVcontains(pacif)
p2954
I00
sVcontains(unauthoris)
p2955
I00
sVcontains(dengu)
p2956
I00
sVcontains(murder)
p2957
I00
sVcontains(sewag)
p2958
I00
sVcontains(gar)
p2959
I00
sVcontains(work)
p2960
I00
sVcontains(construct)
p2961
I01
sVcontains(mall)
p2962
I00
sVcontains(wander)
p2963
I00
sVcontains(overflow)
p2964
I00
sVcontains(thief)
p2965
I00
sVcontains(local)
p2966
I00
sVcontains(regard)
p2967
I00
sVcontains(chowk)
p2968
I00
sVcontains(state)
p2969
I01
sVcontains(7)
p2970
I00
sVcontains(bank)
p2971
I01
sVcontains(malaria)
p2972
I00
sVcontains(drink)
p2973
I00
sVcontains(high)
p2974
I00
sVcontains(\u0926\u0935\u093e)
p2975
I00
sVcontains(dog)
p2976
I00
sVcontains(menac)
p2977
I00
sVcontains(hous)
p2978
I00
sVcontains(light)
p2979
I00
sVcontains(bread)
p2980
I00
sVcontains(staircas)
p2981
I00
sVcontains(road)
p2982
I00
sVcontains(spoil)
p2983
I00
sVcontains(\u092c\u0940\u092e\u093e\u0930)
p2984
I00
sVcontains(vihar)
p2985
I01
sVcontains(robberi)
p2986
I00
sVcontains(line)
p2987
I00
sVcontains(accid)
p2988
I00
sVcontains(e)
p2989
I00
sVcontains(sinc)
p2990
I00
sVcontains(front)
p2991
I00
sVcontains(street)
p2992
I00
sVcontains(new)
p2993
I01
sVcontains(ramp)
p2994
I00
sVcontains(clear)
p2995
I00
sVcontains(110063)
p2996
I01
sVcontains(anim)
p2997
I00
sVcontains(nagar)
p2998
I01
sVcontains(main)
p2999
I00
sVcontains(burgler)
p3000
I00
sVcontains(hole)
p3001
I00
sVcontains(roadsid)
p3002
I00
sVcontains(log)
p3003
I00
sVcontains(day)
p3004
I00
sVcontains(ill)
p3005
I00
sVcontains(delhi)
p3006
I01
sVcontains(drain)
p3007
I00
sVcontains(garbag)
p3008
I00
sVcontains(illeg)
p3009
I01
sVcontains(mosquito)
p3010
I00
sVcontains(medicin)
p3011
I00
sVcontains(complaint)
p3012
I00
sVcontains(sick)
p3013
I00
sg496
tp3014
a((dp3015
Vcontains(pig)
p3016
I00
sVcontains(jal)
p3017
I00
sVcontains(drainag)
p3018
I00
sVcontains(paschim)
p3019
I00
sVcontains(behind)
p3020
I00
sVcontains(suppli)
p3021
I00
sVcontains(sewer)
p3022
I00
sVcontains(problem)
p3023
I00
sVcontains(hill)
p3024
I00
sVcontains(20)
p3025
I00
sVcontains(tagor)
p3026
I00
sVcontains(wast)
p3027
I00
sVcontains(162)
p3028
I00
sVcontains(risk)
p3029
I00
sVcontains(idgah)
p3030
I00
sVcontains(leakag)
p3031
I00
sVcontains(10)
p3032
I00
sVcontains(water)
p3033
I00
sVcontains(2017)
p3034
I00
sVcontains(pacif)
p3035
I00
sVcontains(unauthoris)
p3036
I00
sVcontains(dengu)
p3037
I00
sVcontains(murder)
p3038
I00
sVcontains(sewag)
p3039
I00
sVcontains(gar)
p3040
I00
sVcontains(work)
p3041
I00
sVcontains(construct)
p3042
I00
sVcontains(mall)
p3043
I00
sVcontains(wander)
p3044
I00
sVcontains(overflow)
p3045
I00
sVcontains(thief)
p3046
I00
sVcontains(local)
p3047
I00
sVcontains(regard)
p3048
I00
sVcontains(chowk)
p3049
I00
sVcontains(state)
p3050
I00
sVcontains(7)
p3051
I00
sVcontains(bank)
p3052
I00
sVcontains(malaria)
p3053
I00
sVcontains(drink)
p3054
I00
sVcontains(high)
p3055
I00
sVcontains(\u0926\u0935\u093e)
p3056
I00
sVcontains(dog)
p3057
I00
sVcontains(menac)
p3058
I00
sVcontains(hous)
p3059
I00
sVcontains(light)
p3060
I00
sVcontains(bread)
p3061
I00
sVcontains(staircas)
p3062
I00
sVcontains(road)
p3063
I00
sVcontains(spoil)
p3064
I00
sVcontains(\u092c\u0940\u092e\u093e\u0930)
p3065
I00
sVcontains(vihar)
p3066
I00
sVcontains(robberi)
p3067
I00
sVcontains(line)
p3068
I00
sVcontains(accid)
p3069
I00
sVcontains(e)
p3070
I00
sVcontains(sinc)
p3071
I00
sVcontains(front)
p3072
I00
sVcontains(street)
p3073
I00
sVcontains(new)
p3074
I00
sVcontains(ramp)
p3075
I00
sVcontains(clear)
p3076
I00
sVcontains(110063)
p3077
I00
sVcontains(anim)
p3078
I00
sVcontains(nagar)
p3079
I00
sVcontains(main)
p3080
I00
sVcontains(burgler)
p3081
I00
sVcontains(hole)
p3082
I00
sVcontains(roadsid)
p3083
I01
sVcontains(log)
p3084
I00
sVcontains(day)
p3085
I00
sVcontains(ill)
p3086
I00
sVcontains(delhi)
p3087
I00
sVcontains(drain)
p3088
I00
sVcontains(garbag)
p3089
I01
sVcontains(illeg)
p3090
I00
sVcontains(mosquito)
p3091
I00
sVcontains(medicin)
p3092
I00
sVcontains(complaint)
p3093
I00
sVcontains(sick)
p3094
I00
sg1146
tp3095
a((dp3096
Vcontains(pig)
p3097
I00
sVcontains(jal)
p3098
I00
sVcontains(drainag)
p3099
I00
sVcontains(paschim)
p3100
I00
sVcontains(behind)
p3101
I00
sVcontains(suppli)
p3102
I00
sVcontains(sewer)
p3103
I00
sVcontains(problem)
p3104
I00
sVcontains(hill)
p3105
I01
sVcontains(20)
p3106
I00
sVcontains(tagor)
p3107
I00
sVcontains(wast)
p3108
I00
sVcontains(162)
p3109
I00
sVcontains(risk)
p3110
I00
sVcontains(idgah)
p3111
I01
sVcontains(leakag)
p3112
I00
sVcontains(10)
p3113
I00
sVcontains(water)
p3114
I00
sVcontains(2017)
p3115
I00
sVcontains(pacif)
p3116
I00
sVcontains(unauthoris)
p3117
I00
sVcontains(dengu)
p3118
I00
sVcontains(murder)
p3119
I00
sVcontains(sewag)
p3120
I00
sVcontains(gar)
p3121
I00
sVcontains(work)
p3122
I00
sVcontains(construct)
p3123
I00
sVcontains(mall)
p3124
I00
sVcontains(wander)
p3125
I00
sVcontains(overflow)
p3126
I00
sVcontains(thief)
p3127
I00
sVcontains(local)
p3128
I00
sVcontains(regard)
p3129
I00
sVcontains(chowk)
p3130
I00
sVcontains(state)
p3131
I00
sVcontains(7)
p3132
I00
sVcontains(bank)
p3133
I00
sVcontains(malaria)
p3134
I00
sVcontains(drink)
p3135
I00
sVcontains(high)
p3136
I00
sVcontains(\u0926\u0935\u093e)
p3137
I00
sVcontains(dog)
p3138
I01
sVcontains(menac)
p3139
I00
sVcontains(hous)
p3140
I00
sVcontains(light)
p3141
I00
sVcontains(bread)
p3142
I00
sVcontains(staircas)
p3143
I00
sVcontains(road)
p3144
I00
sVcontains(spoil)
p3145
I00
sVcontains(\u092c\u0940\u092e\u093e\u0930)
p3146
I00
sVcontains(vihar)
p3147
I00
sVcontains(robberi)
p3148
I00
sVcontains(line)
p3149
I00
sVcontains(accid)
p3150
I00
sVcontains(e)
p3151
I00
sVcontains(sinc)
p3152
I00
sVcontains(front)
p3153
I00
sVcontains(street)
p3154
I01
sVcontains(new)
p3155
I00
sVcontains(ramp)
p3156
I00
sVcontains(clear)
p3157
I00
sVcontains(110063)
p3158
I00
sVcontains(anim)
p3159
I00
sVcontains(nagar)
p3160
I00
sVcontains(main)
p3161
I00
sVcontains(burgler)
p3162
I00
sVcontains(hole)
p3163
I00
sVcontains(roadsid)
p3164
I00
sVcontains(log)
p3165
I00
sVcontains(day)
p3166
I00
sVcontains(ill)
p3167
I00
sVcontains(delhi)
p3168
I00
sVcontains(drain)
p3169
I00
sVcontains(garbag)
p3170
I00
sVcontains(illeg)
p3171
I00
sVcontains(mosquito)
p3172
I00
sVcontains(medicin)
p3173
I00
sVcontains(complaint)
p3174
I00
sVcontains(sick)
p3175
I00
sg1146
tp3176
a((dp3177
Vcontains(pig)
p3178
I00
sVcontains(jal)
p3179
I00
sVcontains(drainag)
p3180
I00
sVcontains(paschim)
p3181
I00
sVcontains(behind)
p3182
I00
sVcontains(suppli)
p3183
I00
sVcontains(sewer)
p3184
I00
sVcontains(problem)
p3185
I00
sVcontains(hill)
p3186
I00
sVcontains(20)
p3187
I00
sVcontains(tagor)
p3188
I00
sVcontains(wast)
p3189
I00
sVcontains(162)
p3190
I00
sVcontains(risk)
p3191
I00
sVcontains(idgah)
p3192
I00
sVcontains(leakag)
p3193
I00
sVcontains(10)
p3194
I00
sVcontains(water)
p3195
I00
sVcontains(2017)
p3196
I00
sVcontains(pacif)
p3197
I00
sVcontains(unauthoris)
p3198
I01
sVcontains(dengu)
p3199
I00
sVcontains(murder)
p3200
I00
sVcontains(sewag)
p3201
I00
sVcontains(gar)
p3202
I00
sVcontains(work)
p3203
I00
sVcontains(construct)
p3204
I01
sVcontains(mall)
p3205
I00
sVcontains(wander)
p3206
I00
sVcontains(overflow)
p3207
I00
sVcontains(thief)
p3208
I00
sVcontains(local)
p3209
I00
sVcontains(regard)
p3210
I00
sVcontains(chowk)
p3211
I00
sVcontains(state)
p3212
I00
sVcontains(7)
p3213
I00
sVcontains(bank)
p3214
I00
sVcontains(malaria)
p3215
I00
sVcontains(drink)
p3216
I00
sVcontains(high)
p3217
I00
sVcontains(\u0926\u0935\u093e)
p3218
I00
sVcontains(dog)
p3219
I00
sVcontains(menac)
p3220
I00
sVcontains(hous)
p3221
I00
sVcontains(light)
p3222
I00
sVcontains(bread)
p3223
I00
sVcontains(staircas)
p3224
I01
sVcontains(road)
p3225
I01
sVcontains(spoil)
p3226
I00
sVcontains(\u092c\u0940\u092e\u093e\u0930)
p3227
I00
sVcontains(vihar)
p3228
I00
sVcontains(robberi)
p3229
I00
sVcontains(line)
p3230
I00
sVcontains(accid)
p3231
I00
sVcontains(e)
p3232
I00
sVcontains(sinc)
p3233
I00
sVcontains(front)
p3234
I00
sVcontains(street)
p3235
I00
sVcontains(new)
p3236
I00
sVcontains(ramp)
p3237
I01
sVcontains(clear)
p3238
I00
sVcontains(110063)
p3239
I00
sVcontains(anim)
p3240
I00
sVcontains(nagar)
p3241
I00
sVcontains(main)
p3242
I00
sVcontains(burgler)
p3243
I00
sVcontains(hole)
p3244
I00
sVcontains(roadsid)
p3245
I00
sVcontains(log)
p3246
I00
sVcontains(day)
p3247
I00
sVcontains(ill)
p3248
I00
sVcontains(delhi)
p3249
I00
sVcontains(drain)
p3250
I00
sVcontains(garbag)
p3251
I00
sVcontains(illeg)
p3252
I00
sVcontains(mosquito)
p3253
I00
sVcontains(medicin)
p3254
I00
sVcontains(complaint)
p3255
I00
sVcontains(sick)
p3256
I00
sS'police'
p3257
tp3258
a((dp3259
Vcontains(pig)
p3260
I00
sVcontains(jal)
p3261
I00
sVcontains(drainag)
p3262
I00
sVcontains(paschim)
p3263
I00
sVcontains(behind)
p3264
I00
sVcontains(suppli)
p3265
I00
sVcontains(sewer)
p3266
I01
sVcontains(problem)
p3267
I00
sVcontains(hill)
p3268
I00
sVcontains(20)
p3269
I00
sVcontains(tagor)
p3270
I00
sVcontains(wast)
p3271
I00
sVcontains(162)
p3272
I00
sVcontains(risk)
p3273
I00
sVcontains(idgah)
p3274
I00
sVcontains(leakag)
p3275
I01
sVcontains(10)
p3276
I00
sVcontains(water)
p3277
I00
sVcontains(2017)
p3278
I00
sVcontains(pacif)
p3279
I00
sVcontains(unauthoris)
p3280
I00
sVcontains(dengu)
p3281
I00
sVcontains(murder)
p3282
I00
sVcontains(sewag)
p3283
I00
sVcontains(gar)
p3284
I00
sVcontains(work)
p3285
I00
sVcontains(construct)
p3286
I00
sVcontains(mall)
p3287
I00
sVcontains(wander)
p3288
I00
sVcontains(overflow)
p3289
I00
sVcontains(thief)
p3290
I00
sVcontains(local)
p3291
I00
sVcontains(regard)
p3292
I00
sVcontains(chowk)
p3293
I00
sVcontains(state)
p3294
I00
sVcontains(7)
p3295
I00
sVcontains(bank)
p3296
I00
sVcontains(malaria)
p3297
I00
sVcontains(drink)
p3298
I00
sVcontains(high)
p3299
I00
sVcontains(\u0926\u0935\u093e)
p3300
I00
sVcontains(dog)
p3301
I00
sVcontains(menac)
p3302
I00
sVcontains(hous)
p3303
I00
sVcontains(light)
p3304
I00
sVcontains(bread)
p3305
I00
sVcontains(staircas)
p3306
I00
sVcontains(road)
p3307
I00
sVcontains(spoil)
p3308
I00
sVcontains(\u092c\u0940\u092e\u093e\u0930)
p3309
I00
sVcontains(vihar)
p3310
I00
sVcontains(robberi)
p3311
I00
sVcontains(line)
p3312
I00
sVcontains(accid)
p3313
I00
sVcontains(e)
p3314
I00
sVcontains(sinc)
p3315
I00
sVcontains(front)
p3316
I00
sVcontains(street)
p3317
I00
sVcontains(new)
p3318
I00
sVcontains(ramp)
p3319
I00
sVcontains(clear)
p3320
I00
sVcontains(110063)
p3321
I00
sVcontains(anim)
p3322
I00
sVcontains(nagar)
p3323
I00
sVcontains(main)
p3324
I00
sVcontains(burgler)
p3325
I00
sVcontains(hole)
p3326
I00
sVcontains(roadsid)
p3327
I00
sVcontains(log)
p3328
I00
sVcontains(day)
p3329
I00
sVcontains(ill)
p3330
I00
sVcontains(delhi)
p3331
I00
sVcontains(drain)
p3332
I00
sVcontains(garbag)
p3333
I00
sVcontains(illeg)
p3334
I00
sVcontains(mosquito)
p3335
I00
sVcontains(medicin)
p3336
I00
sVcontains(complaint)
p3337
I00
sVcontains(sick)
p3338
I00
sS'water'
p3339
tp3340
a((dp3341
Vcontains(pig)
p3342
I00
sVcontains(jal)
p3343
I00
sVcontains(drainag)
p3344
I00
sVcontains(paschim)
p3345
I00
sVcontains(behind)
p3346
I00
sVcontains(suppli)
p3347
I00
sVcontains(sewer)
p3348
I00
sVcontains(problem)
p3349
I00
sVcontains(hill)
p3350
I00
sVcontains(20)
p3351
I00
sVcontains(tagor)
p3352
I00
sVcontains(wast)
p3353
I00
sVcontains(162)
p3354
I00
sVcontains(risk)
p3355
I00
sVcontains(idgah)
p3356
I00
sVcontains(leakag)
p3357
I00
sVcontains(10)
p3358
I00
sVcontains(water)
p3359
I01
sVcontains(2017)
p3360
I00
sVcontains(pacif)
p3361
I00
sVcontains(unauthoris)
p3362
I00
sVcontains(dengu)
p3363
I00
sVcontains(murder)
p3364
I00
sVcontains(sewag)
p3365
I00
sVcontains(gar)
p3366
I00
sVcontains(work)
p3367
I00
sVcontains(construct)
p3368
I00
sVcontains(mall)
p3369
I00
sVcontains(wander)
p3370
I00
sVcontains(overflow)
p3371
I00
sVcontains(thief)
p3372
I00
sVcontains(local)
p3373
I00
sVcontains(regard)
p3374
I00
sVcontains(chowk)
p3375
I00
sVcontains(state)
p3376
I00
sVcontains(7)
p3377
I00
sVcontains(bank)
p3378
I00
sVcontains(malaria)
p3379
I00
sVcontains(drink)
p3380
I00
sVcontains(high)
p3381
I00
sVcontains(\u0926\u0935\u093e)
p3382
I00
sVcontains(dog)
p3383
I00
sVcontains(menac)
p3384
I00
sVcontains(hous)
p3385
I01
sVcontains(light)
p3386
I00
sVcontains(bread)
p3387
I00
sVcontains(staircas)
p3388
I00
sVcontains(road)
p3389
I00
sVcontains(spoil)
p3390
I00
sVcontains(\u092c\u0940\u092e\u093e\u0930)
p3391
I00
sVcontains(vihar)
p3392
I00
sVcontains(robberi)
p3393
I00
sVcontains(line)
p3394
I00
sVcontains(accid)
p3395
I00
sVcontains(e)
p3396
I00
sVcontains(sinc)
p3397
I00
sVcontains(front)
p3398
I01
sVcontains(street)
p3399
I00
sVcontains(new)
p3400
I00
sVcontains(ramp)
p3401
I00
sVcontains(clear)
p3402
I00
sVcontains(110063)
p3403
I00
sVcontains(anim)
p3404
I00
sVcontains(nagar)
p3405
I00
sVcontains(main)
p3406
I00
sVcontains(burgler)
p3407
I00
sVcontains(hole)
p3408
I00
sVcontains(roadsid)
p3409
I00
sVcontains(log)
p3410
I01
sVcontains(day)
p3411
I00
sVcontains(ill)
p3412
I00
sVcontains(delhi)
p3413
I00
sVcontains(drain)
p3414
I00
sVcontains(garbag)
p3415
I00
sVcontains(illeg)
p3416
I00
sVcontains(mosquito)
p3417
I00
sVcontains(medicin)
p3418
I00
sVcontains(complaint)
p3419
I00
sVcontains(sick)
p3420
I00
sg90
tp3421
asS'train_set'
p3422
(lp3423
(Vwater
p3424
g90
tp3425
a(Vlog
p3426
g90
tp3427
a(Vjal
p3428
g90
tp3429
a(Vdrainag
p3430
g90
tp3431
a(Vsewag
p3432
g90
tp3433
a(Vburgler
p3434
g496
tp3435
a(Vthief
p3436
g496
tp3437
a(Vrobberi
p3438
g496
tp3439
a(Vmurder
p3440
g496
tp3441
a(Vmedicin
p3442
g821
tp3443
a(Vill
p3444
g821
tp3445
a(Vsick
p3446
g821
tp3447
a(Vaccid
p3448
g821
tp3449
a(Vdog
p3450
g1146
tp3451
a(Vwast
p3452
g1146
tp3453
a(Vgarbag
p3454
g1146
tp3455
a(Villeg
p3456
g496
tp3457
a(Vanim
p3458
g1146
tp3459
a(Vlight
p3460
g1552
tp3461
a(V\u0926\u0935\u093e
p3462
g821
tp3463
a(V\u092c\u0940\u092e\u093e\u0930
p3464
g821
tp3465
a(Vcomplaint suppli drainag water drink water line
p3466
g90
tp3467
a(Voverflow drain mosquito bread high risk dengu malaria
p3468
g821
tp3469
a(Vstreet light work sinc 10 day e 20 7 2017
p3470
g1958
tp3471
a(Vcomplaint regard street light
p3472
g1146
tp3473
a(Vpig wander spoil local
p3474
g2121
tp3475
a(Vdog menac street
p3476
g1146
tp3477
a(Vcomplaint suppli drainag water drink water line
p3478
g90
tp3479
a(Voverflow drain mosquito bread high risk dengu malaria
p3480
g2365
tp3481
a(Vstreet light work sinc 10 day e 20 7 2017
p3482
g1146
tp3483
a(Vcomplaint regard street light
p3484
g1146
tp3485
a(Vpig wander spoil local
p3486
g1146
tp3487
a(Vdog menac street
p3488
g1146
tp3489
a(Villeg construct hous behind pacif mall tagor gar
p3490
g496
tp3491
a(Vgarbag clear problem
p3492
g1146
tp3493
a(Vmain hole chowk
p3494
g1146
tp3495
a(Villeg construct 162 state bank nagar paschim vihar new delhi 110063
p3496
g496
tp3497
a(Vgarbag roadsid
p3498
g1146
tp3499
a(Vstreet dog idgah hill
p3500
g1146
tp3501
a(Vunauthoris construct staircas ramp road
p3502
g3257
tp3503
a(Vsewer leakag
p3504
g3339
tp3505
a(Vwater log front hous
p3506
g90
tp3507
asS'feature_extractor'
p3508
ctextblob.classifiers
basic_extractor
p3509
sS'classifier'
p3510
g0
(cnltk.classify.naivebayes
NaiveBayesClassifier
p3511
g2
Ntp3512
Rp3513
(dp3514
S'_labels'
p3515
(lp3516
g90
ag1552
ag496
ag1146
ag821
asS'_feature_probdist'
p3517
(dp3518
(g1146
g1102
tp3519
g0
(cnltk.probability
ELEProbDist
p3520
g2
Ntp3521
Rp3522
(dp3523
S'_gamma'
p3524
F0.5
sS'_N'
p3525
I16
sS'_freqdist'
p3526
cnltk.probability
FreqDist
p3527
((dp3528
I00
I14
sI01
I2
stp3529
Rp3530
sS'_bins'
p3531
I2
sS'_divisor'
p3532
F17.0
sbs(g1146
g1137
tp3533
g0
(g3520
g2
Ntp3534
Rp3535
(dp3536
g3524
F0.5
sg3525
I16
sg3526
g3527
((dp3537
I00
I16
stp3538
Rp3539
sg3531
I2
sg3532
F17.0
sbs(g1552
g1513
tp3540
g0
(g3520
g2
Ntp3541
Rp3542
(dp3543
g3524
F0.5
sg3525
I1
sg3526
g3527
((dp3544
I00
I1
stp3545
Rp3546
sg3531
I2
sg3532
F2.0
sbs(g1552
g1536
tp3547
g0
(g3520
g2
Ntp3548
Rp3549
(dp3550
g3524
F0.5
sg3525
I1
sg3526
g3527
((dp3551
I00
I1
stp3552
Rp3553
sg3531
I2
sg3532
F2.0
sbs(g90
g33
tp3554
g0
(g3520
g2
Ntp3555
Rp3556
(dp3557
g3524
F0.5
sg3525
I10
sg3526
g3527
((dp3558
I00
I10
stp3559
Rp3560
sg3531
I2
sg3532
F11.0
sbs(g1146
g1078
tp3561
g0
(g3520
g2
Ntp3562
Rp3563
(dp3564
g3524
F0.5
sg3525
I16
sg3526
g3527
((dp3565
I00
I15
sI01
I1
stp3566
Rp3567
sg3531
I2
sg3532
F17.0
sbs(g1146
g1118
tp3568
g0
(g3520
g2
Ntp3569
Rp3570
(dp3571
g3524
F0.5
sg3525
I16
sg3526
g3527
((dp3572
I00
I16
stp3573
Rp3574
sg3531
I2
sg3532
F17.0
sbs(g1146
g1136
tp3575
g0
(g3520
g2
Ntp3576
Rp3577
(dp3578
g3524
F0.5
sg3525
I16
sg3526
g3527
((dp3579
I00
I14
sI01
I2
stp3580
Rp3581
sg3531
I2
sg3532
F17.0
sbs(g1146
g1098
tp3582
g0
(g3520
g2
Ntp3583
Rp3584
(dp3585
g3524
F0.5
sg3525
I16
sg3526
g3527
((dp3586
I00
I14
sI01
I2
stp3587
Rp3588
sg3531
I2
sg3532
F17.0
sbs(g90
g39
tp3589
g0
(g3520
g2
Ntp3590
Rp3591
(dp3592
g3524
F0.5
sg3525
I10
sg3526
g3527
((dp3593
I00
I10
stp3594
Rp3595
sg3531
I2
sg3532
F11.0
sbs(g821
g803
tp3596
g0
(g3520
g2
Ntp3597
Rp3598
(dp3599
g3524
F0.5
sg3525
I7
sg3526
g3527
((dp3600
I00
I7
stp3601
Rp3602
sg3531
I2
sg3532
F8.0
sbs(g1552
g1528
tp3603
g0
(g3520
g2
Ntp3604
Rp3605
(dp3606
g3524
F0.5
sg3525
I1
sg3526
g3527
((dp3607
I00
I1
stp3608
Rp3609
sg3531
I2
sg3532
F2.0
sbs(g90
g30
tp3610
g0
(g3520
g2
Ntp3611
Rp3612
(dp3613
g3524
F0.5
sg3525
I10
sg3526
g3527
((dp3614
I00
I10
stp3615
Rp3616
sg3531
I2
sg3532
F11.0
sbs(g1552
g1479
tp3617
g0
(g3520
g2
Ntp3618
Rp3619
(dp3620
g3524
F0.5
sg3525
I1
sg3526
g3527
((dp3621
I00
I1
stp3622
Rp3623
sg3531
I2
sg3532
F2.0
sbs(g1552
g1537
tp3624
g0
(g3520
g2
Ntp3625
Rp3626
(dp3627
g3524
F0.5
sg3525
I1
sg3526
g3527
((dp3628
I00
I1
stp3629
Rp3630
sg3531
I2
sg3532
F2.0
sbs(g496
g483
tp3631
g0
(g3520
g2
Ntp3632
Rp3633
(dp3634
g3524
F0.5
sg3525
I8
sg3526
g3527
((dp3635
I00
I8
stp3636
Rp3637
sg3531
I2
sg3532
F9.0
sbs(g1552
g1490
tp3638
g0
(g3520
g2
Ntp3639
Rp3640
(dp3641
g3524
F0.5
sg3525
I1
sg3526
g3527
((dp3642
I00
I1
stp3643
Rp3644
sg3531
I2
sg3532
F2.0
sbs(g496
g486
tp3645
g0
(g3520
g2
Ntp3646
Rp3647
(dp3648
g3524
F0.5
sg3525
I8
sg3526
g3527
((dp3649
I00
I8
stp3650
Rp3651
sg3531
I2
sg3532
F9.0
sbs(g821
g782
tp3652
g0
(g3520
g2
Ntp3653
Rp3654
(dp3655
g3524
F0.5
sg3525
I7
sg3526
g3527
((dp3656
I00
I6
sI01
I1
stp3657
Rp3658
sg3531
I2
sg3532
F8.0
sbs(g1146
g1076
tp3659
g0
(g3520
g2
Ntp3660
Rp3661
(dp3662
g3524
F0.5
sg3525
I16
sg3526
g3527
((dp3663
I00
I14
sI01
I2
stp3664
Rp3665
sg3531
I2
sg3532
F17.0
sbs(g1552
g1551
tp3666
g0
(g3520
g2
Ntp3667
Rp3668
(dp3669
g3524
F0.5
sg3525
I1
sg3526
g3527
((dp3670
I00
I1
stp3671
Rp3672
sg3531
I2
sg3532
F2.0
sbs(g496
g441
tp3673
g0
(g3520
g2
Ntp3674
Rp3675
(dp3676
g3524
F0.5
sg3525
I8
sg3526
g3527
((dp3677
I00
I7
sI01
I1
stp3678
Rp3679
sg3531
I2
sg3532
F9.0
sbs(g1552
g1535
tp3680
g0
(g3520
g2
Ntp3681
Rp3682
(dp3683
g3524
F0.5
sg3525
I1
sg3526
g3527
((dp3684
I00
I1
stp3685
Rp3686
sg3531
I2
sg3532
F2.0
sbs(g1146
g1123
tp3687
g0
(g3520
g2
Ntp3688
Rp3689
(dp3690
g3524
F0.5
sg3525
I16
sg3526
g3527
((dp3691
I00
I16
stp3692
Rp3693
sg3531
I2
sg3532
F17.0
sbs(g496
g439
tp3694
g0
(g3520
g2
Ntp3695
Rp3696
(dp3697
g3524
F0.5
sg3525
I8
sg3526
g3527
((dp3698
I00
I7
sI01
I1
stp3699
Rp3700
sg3531
I2
sg3532
F9.0
sbs(g90
g23
tp3701
g0
(g3520
g2
Ntp3702
Rp3703
(dp3704
g3524
F0.5
sg3525
I10
sg3526
g3527
((dp3705
I00
I10
stp3706
Rp3707
sg3531
I2
sg3532
F11.0
sbs(g496
g487
tp3708
g0
(g3520
g2
Ntp3709
Rp3710
(dp3711
g3524
F0.5
sg3525
I8
sg3526
g3527
((dp3712
I00
I8
stp3713
Rp3714
sg3531
I2
sg3532
F9.0
sbs(g496
g443
tp3715
g0
(g3520
g2
Ntp3716
Rp3717
(dp3718
g3524
F0.5
sg3525
I8
sg3526
g3527
((dp3719
I00
I5
sI01
I3
stp3720
Rp3721
sg3531
I2
sg3532
F9.0
sbs(g90
g78
tp3722
g0
(g3520
g2
Ntp3723
Rp3724
(dp3725
g3524
F0.5
sg3525
I10
sg3526
g3527
((dp3726
I00
I10
stp3727
Rp3728
sg3531
I2
sg3532
F11.0
sbs(g496
g445
tp3729
g0
(g3520
g2
Ntp3730
Rp3731
(dp3732
g3524
F0.5
sg3525
I8
sg3526
g3527
((dp3733
I00
I8
stp3734
Rp3735
sg3531
I2
sg3532
F9.0
sbs(g821
g745
tp3736
g0
(g3520
g2
Ntp3737
Rp3738
(dp3739
g3524
F0.5
sg3525
I7
sg3526
g3527
((dp3740
I00
I7
stp3741
Rp3742
sg3531
I2
sg3532
F8.0
sbs(g1552
g1484
tp3743
g0
(g3520
g2
Ntp3744
Rp3745
(dp3746
g3524
F0.5
sg3525
I1
sg3526
g3527
((dp3747
I00
I1
stp3748
Rp3749
sg3531
I2
sg3532
F2.0
sbs(g1146
g1103
tp3750
g0
(g3520
g2
Ntp3751
Rp3752
(dp3753
g3524
F0.5
sg3525
I16
sg3526
g3527
((dp3754
I00
I16
stp3755
Rp3756
sg3531
I2
sg3532
F17.0
sbs(g90
g38
tp3757
g0
(g3520
g2
Ntp3758
Rp3759
(dp3760
g3524
F0.5
sg3525
I10
sg3526
g3527
((dp3761
I00
I10
stp3762
Rp3763
sg3531
I2
sg3532
F11.0
sbs(g1146
g1094
tp3764
g0
(g3520
g2
Ntp3765
Rp3766
(dp3767
g3524
F0.5
sg3525
I16
sg3526
g3527
((dp3768
I00
I16
stp3769
Rp3770
sg3531
I2
sg3532
F17.0
sbs(g821
g772
tp3771
g0
(g3520
g2
Ntp3772
Rp3773
(dp3774
g3524
F0.5
sg3525
I7
sg3526
g3527
((dp3775
I00
I7
stp3776
Rp3777
sg3531
I2
sg3532
F8.0
sbs(g1552
g1494
tp3778
g0
(g3520
g2
Ntp3779
Rp3780
(dp3781
g3524
F0.5
sg3525
I1
sg3526
g3527
((dp3782
I00
I1
stp3783
Rp3784
sg3531
I2
sg3532
F2.0
sbs(g1552
g1507
tp3785
g0
(g3520
g2
Ntp3786
Rp3787
(dp3788
g3524
F0.5
sg3525
I1
sg3526
g3527
((dp3789
I00
I1
stp3790
Rp3791
sg3531
I2
sg3532
F2.0
sbs(g90
g15
tp3792
g0
(g3520
g2
Ntp3793
Rp3794
(dp3795
g3524
F0.5
sg3525
I10
sg3526
g3527
((dp3796
I00
I10
stp3797
Rp3798
sg3531
I2
sg3532
F11.0
sbs(g496
g420
tp3799
g0
(g3520
g2
Ntp3800
Rp3801
(dp3802
g3524
F0.5
sg3525
I8
sg3526
g3527
((dp3803
I00
I7
sI01
I1
stp3804
Rp3805
sg3531
I2
sg3532
F9.0
sbs(g1146
g1071
tp3806
g0
(g3520
g2
Ntp3807
Rp3808
(dp3809
g3524
F0.5
sg3525
I16
sg3526
g3527
((dp3810
I00
I16
stp3811
Rp3812
sg3531
I2
sg3532
F17.0
sbs(g90
g12
tp3813
g0
(g3520
g2
Ntp3814
Rp3815
(dp3816
g3524
F0.5
sg3525
I10
sg3526
g3527
((dp3817
I00
I9
sI01
I1
stp3818
Rp3819
sg3531
I2
sg3532
F11.0
sbs(g90
g48
tp3820
g0
(g3520
g2
Ntp3821
Rp3822
(dp3823
g3524
F0.5
sg3525
I10
sg3526
g3527
((dp3824
I00
I9
sI01
I1
stp3825
Rp3826
sg3531
I2
sg3532
F11.0
sbs(g1146
g1104
tp3827
g0
(g3520
g2
Ntp3828
Rp3829
(dp3830
g3524
F0.5
sg3525
I16
sg3526
g3527
((dp3831
I00
I16
stp3832
Rp3833
sg3531
I2
sg3532
F17.0
sbs(g90
g41
tp3834
g0
(g3520
g2
Ntp3835
Rp3836
(dp3837
g3524
F0.5
sg3525
I10
sg3526
g3527
((dp3838
I00
I10
stp3839
Rp3840
sg3531
I2
sg3532
F11.0
sbs(g1552
g1550
tp3841
g0
(g3520
g2
Ntp3842
Rp3843
(dp3844
g3524
F0.5
sg3525
I1
sg3526
g3527
((dp3845
I00
I1
stp3846
Rp3847
sg3531
I2
sg3532
F2.0
sbs(g821
g769
tp3848
g0
(g3520
g2
Ntp3849
Rp3850
(dp3851
g3524
F0.5
sg3525
I7
sg3526
g3527
((dp3852
I00
I7
stp3853
Rp3854
sg3531
I2
sg3532
F8.0
sbs(g496
g472
tp3855
g0
(g3520
g2
Ntp3856
Rp3857
(dp3858
g3524
F0.5
sg3525
I8
sg3526
g3527
((dp3859
I00
I8
stp3860
Rp3861
sg3531
I2
sg3532
F9.0
sbs(g496
g491
tp3862
g0
(g3520
g2
Ntp3863
Rp3864
(dp3865
g3524
F0.5
sg3525
I8
sg3526
g3527
((dp3866
I00
I5
sI01
I3
stp3867
Rp3868
sg3531
I2
sg3532
F9.0
sbs(g90
g54
tp3869
g0
(g3520
g2
Ntp3870
Rp3871
(dp3872
g3524
F0.5
sg3525
I10
sg3526
g3527
((dp3873
I00
I9
sI01
I1
stp3874
Rp3875
sg3531
I2
sg3532
F11.0
sbs(g90
g82
tp3876
g0
(g3520
g2
Ntp3877
Rp3878
(dp3879
g3524
F0.5
sg3525
I10
sg3526
g3527
((dp3880
I00
I10
stp3881
Rp3882
sg3531
I2
sg3532
F11.0
sbs(g821
g797
tp3883
g0
(g3520
g2
Ntp3884
Rp3885
(dp3886
g3524
F0.5
sg3525
I7
sg3526
g3527
((dp3887
I00
I7
stp3888
Rp3889
sg3531
I2
sg3532
F8.0
sbs(g821
g814
tp3890
g0
(g3520
g2
Ntp3891
Rp3892
(dp3893
g3524
F0.5
sg3525
I7
sg3526
g3527
((dp3894
I00
I6
sI01
I1
stp3895
Rp3896
sg3531
I2
sg3532
F8.0
sbs(g1552
g1546
tp3897
g0
(g3520
g2
Ntp3898
Rp3899
(dp3900
g3524
F0.5
sg3525
I1
sg3526
g3527
((dp3901
I00
I1
stp3902
Rp3903
sg3531
I2
sg3532
F2.0
sbs(g821
g806
tp3904
g0
(g3520
g2
Ntp3905
Rp3906
(dp3907
g3524
F0.5
sg3525
I7
sg3526
g3527
((dp3908
I00
I7
stp3909
Rp3910
sg3531
I2
sg3532
F8.0
sbs(g1146
g1082
tp3911
g0
(g3520
g2
Ntp3912
Rp3913
(dp3914
g3524
F0.5
sg3525
I16
sg3526
g3527
((dp3915
I00
I16
stp3916
Rp3917
sg3531
I2
sg3532
F17.0
sbs(g496
g432
tp3918
g0
(g3520
g2
Ntp3919
Rp3920
(dp3921
g3524
F0.5
sg3525
I8
sg3526
g3527
((dp3922
I00
I8
stp3923
Rp3924
sg3531
I2
sg3532
F9.0
sbs(g821
g779
tp3925
g0
(g3520
g2
Ntp3926
Rp3927
(dp3928
g3524
F0.5
sg3525
I7
sg3526
g3527
((dp3929
I00
I6
sI01
I1
stp3930
Rp3931
sg3531
I2
sg3532
F8.0
sbs(g496
g444
tp3932
g0
(g3520
g2
Ntp3933
Rp3934
(dp3935
g3524
F0.5
sg3525
I8
sg3526
g3527
((dp3936
I00
I7
sI01
I1
stp3937
Rp3938
sg3531
I2
sg3532
F9.0
sbs(g1146
g1141
tp3939
g0
(g3520
g2
Ntp3940
Rp3941
(dp3942
g3524
F0.5
sg3525
I16
sg3526
g3527
((dp3943
I00
I16
stp3944
Rp3945
sg3531
I2
sg3532
F17.0
sbs(g1146
g1099
tp3946
g0
(g3520
g2
Ntp3947
Rp3948
(dp3949
g3524
F0.5
sg3525
I16
sg3526
g3527
((dp3950
I00
I14
sI01
I2
stp3951
Rp3952
sg3531
I2
sg3532
F17.0
sbs(g90
g37
tp3953
g0
(g3520
g2
Ntp3954
Rp3955
(dp3956
g3524
F0.5
sg3525
I10
sg3526
g3527
((dp3957
I00
I10
stp3958
Rp3959
sg3531
I2
sg3532
F11.0
sbs(g1552
g1531
tp3960
g0
(g3520
g2
Ntp3961
Rp3962
(dp3963
g3524
F0.5
sg3525
I1
sg3526
g3527
((dp3964
I00
I1
stp3965
Rp3966
sg3531
I2
sg3532
F2.0
sbs(g90
g81
tp3967
g0
(g3520
g2
Ntp3968
Rp3969
(dp3970
g3524
F0.5
sg3525
I10
sg3526
g3527
((dp3971
I00
I10
stp3972
Rp3973
sg3531
I2
sg3532
F11.0
sbs(g496
g430
tp3974
g0
(g3520
g2
Ntp3975
Rp3976
(dp3977
g3524
F0.5
sg3525
I8
sg3526
g3527
((dp3978
I00
I8
stp3979
Rp3980
sg3531
I2
sg3532
F9.0
sbs(g1146
g1093
tp3981
g0
(g3520
g2
Ntp3982
Rp3983
(dp3984
g3524
F0.5
sg3525
I16
sg3526
g3527
((dp3985
I00
I16
stp3986
Rp3987
sg3531
I2
sg3532
F17.0
sbs(g90
g27
tp3988
g0
(g3520
g2
Ntp3989
Rp3990
(dp3991
g3524
F0.5
sg3525
I10
sg3526
g3527
((dp3992
I00
I10
stp3993
Rp3994
sg3531
I2
sg3532
F11.0
sbs(g821
g761
tp3995
g0
(g3520
g2
Ntp3996
Rp3997
(dp3998
g3524
F0.5
sg3525
I7
sg3526
g3527
((dp3999
I00
I7
stp4000
Rp4001
sg3531
I2
sg3532
F8.0
sbs(g1146
g1067
tp4002
g0
(g3520
g2
Ntp4003
Rp4004
(dp4005
g3524
F0.5
sg3525
I16
sg3526
g3527
((dp4006
I00
I14
sI01
I2
stp4007
Rp4008
sg3531
I2
sg3532
F17.0
sbs(g496
g417
tp4009
g0
(g3520
g2
Ntp4010
Rp4011
(dp4012
g3524
F0.5
sg3525
I8
sg3526
g3527
((dp4013
I00
I8
stp4014
Rp4015
sg3531
I2
sg3532
F9.0
sbs(g90
g77
tp4016
g0
(g3520
g2
Ntp4017
Rp4018
(dp4019
g3524
F0.5
sg3525
I10
sg3526
g3527
((dp4020
I00
I10
stp4021
Rp4022
sg3531
I2
sg3532
F11.0
sbs(g821
g754
tp4023
g0
(g3520
g2
Ntp4024
Rp4025
(dp4026
g3524
F0.5
sg3525
I7
sg3526
g3527
((dp4027
I00
I7
stp4028
Rp4029
sg3531
I2
sg3532
F8.0
sbs(g821
g777
tp4030
g0
(g3520
g2
Ntp4031
Rp4032
(dp4033
g3524
F0.5
sg3525
I7
sg3526
g3527
((dp4034
I00
I7
stp4035
Rp4036
sg3531
I2
sg3532
F8.0
sbs(g496
g478
tp4037
g0
(g3520
g2
Ntp4038
Rp4039
(dp4040
g3524
F0.5
sg3525
I8
sg3526
g3527
((dp4041
I00
I7
sI01
I1
stp4042
Rp4043
sg3531
I2
sg3532
F9.0
sbs(g496
g466
tp4044
g0
(g3520
g2
Ntp4045
Rp4046
(dp4047
g3524
F0.5
sg3525
I8
sg3526
g3527
((dp4048
I00
I8
stp4049
Rp4050
sg3531
I2
sg3532
F9.0
sbs(g90
g63
tp4051
g0
(g3520
g2
Ntp4052
Rp4053
(dp4054
g3524
F0.5
sg3525
I10
sg3526
g3527
((dp4055
I00
I8
sI01
I2
stp4056
Rp4057
sg3531
I2
sg3532
F11.0
sbs(g821
g808
tp4058
g0
(g3520
g2
Ntp4059
Rp4060
(dp4061
g3524
F0.5
sg3525
I7
sg3526
g3527
((dp4062
I00
I7
stp4063
Rp4064
sg3531
I2
sg3532
F8.0
sbs(g496
g429
tp4065
g0
(g3520
g2
Ntp4066
Rp4067
(dp4068
g3524
F0.5
sg3525
I8
sg3526
g3527
((dp4069
I00
I7
sI01
I1
stp4070
Rp4071
sg3531
I2
sg3532
F9.0
sbs(g1552
g1547
tp4072
g0
(g3520
g2
Ntp4073
Rp4074
(dp4075
g3524
F0.5
sg3525
I1
sg3526
g3527
((dp4076
I00
I1
stp4077
Rp4078
sg3531
I2
sg3532
F2.0
sbs(g821
g767
tp4079
g0
(g3520
g2
Ntp4080
Rp4081
(dp4082
g3524
F0.5
sg3525
I7
sg3526
g3527
((dp4083
I00
I7
stp4084
Rp4085
sg3531
I2
sg3532
F8.0
sbs(g1146
g1077
tp4086
g0
(g3520
g2
Ntp4087
Rp4088
(dp4089
g3524
F0.5
sg3525
I16
sg3526
g3527
((dp4090
I00
I16
stp4091
Rp4092
sg3531
I2
sg3532
F17.0
sbs(g1146
g1129
tp4093
g0
(g3520
g2
Ntp4094
Rp4095
(dp4096
g3524
F0.5
sg3525
I16
sg3526
g3527
((dp4097
I00
I15
sI01
I1
stp4098
Rp4099
sg3531
I2
sg3532
F17.0
sbs(g821
g773
tp4100
g0
(g3520
g2
Ntp4101
Rp4102
(dp4103
g3524
F0.5
sg3525
I7
sg3526
g3527
((dp4104
I00
I7
stp4105
Rp4106
sg3531
I2
sg3532
F8.0
sbs(g1552
g1540
tp4107
g0
(g3520
g2
Ntp4108
Rp4109
(dp4110
g3524
F0.5
sg3525
I1
sg3526
g3527
((dp4111
I00
I1
stp4112
Rp4113
sg3531
I2
sg3532
F2.0
sbs(g1552
g1488
tp4114
g0
(g3520
g2
Ntp4115
Rp4116
(dp4117
g3524
F0.5
sg3525
I1
sg3526
g3527
((dp4118
I00
I1
stp4119
Rp4120
sg3531
I2
sg3532
F2.0
sbs(g821
g791
tp4121
g0
(g3520
g2
Ntp4122
Rp4123
(dp4124
g3524
F0.5
sg3525
I7
sg3526
g3527
((dp4125
I00
I6
sI01
I1
stp4126
Rp4127
sg3531
I2
sg3532
F8.0
sbs(g821
g755
tp4128
g0
(g3520
g2
Ntp4129
Rp4130
(dp4131
g3524
F0.5
sg3525
I7
sg3526
g3527
((dp4132
I00
I6
sI01
I1
stp4133
Rp4134
sg3531
I2
sg3532
F8.0
sbs(g821
g749
tp4135
g0
(g3520
g2
Ntp4136
Rp4137
(dp4138
g3524
F0.5
sg3525
I7
sg3526
g3527
((dp4139
I00
I7
stp4140
Rp4141
sg3531
I2
sg3532
F8.0
sbs(g1146
g1072
tp4142
g0
(g3520
g2
Ntp4143
Rp4144
(dp4145
g3524
F0.5
sg3525
I16
sg3526
g3527
((dp4146
I00
I16
stp4147
Rp4148
sg3531
I2
sg3532
F17.0
sbs(g496
g424
tp4149
g0
(g3520
g2
Ntp4150
Rp4151
(dp4152
g3524
F0.5
sg3525
I8
sg3526
g3527
((dp4153
I00
I8
stp4154
Rp4155
sg3531
I2
sg3532
F9.0
sbs(g1146
g1069
tp4156
g0
(g3520
g2
Ntp4157
Rp4158
(dp4159
g3524
F0.5
sg3525
I16
sg3526
g3527
((dp4160
I00
I16
stp4161
Rp4162
sg3531
I2
sg3532
F17.0
sbs(g1552
g1545
tp4163
g0
(g3520
g2
Ntp4164
Rp4165
(dp4166
g3524
F0.5
sg3525
I1
sg3526
g3527
((dp4167
I00
I1
stp4168
Rp4169
sg3531
I2
sg3532
F2.0
sbs(g1552
g1478
tp4170
g0
(g3520
g2
Ntp4171
Rp4172
(dp4173
g3524
F0.5
sg3525
I1
sg3526
g3527
((dp4174
I00
I1
stp4175
Rp4176
sg3531
I2
sg3532
F2.0
sbs(g1146
g1092
tp4177
g0
(g3520
g2
Ntp4178
Rp4179
(dp4180
g3524
F0.5
sg3525
I16
sg3526
g3527
((dp4181
I00
I14
sI01
I2
stp4182
Rp4183
sg3531
I2
sg3532
F17.0
sbs(g90
g83
tp4184
g0
(g3520
g2
Ntp4185
Rp4186
(dp4187
g3524
F0.5
sg3525
I10
sg3526
g3527
((dp4188
I00
I9
sI01
I1
stp4189
Rp4190
sg3531
I2
sg3532
F11.0
sbs(g1552
g1486
tp4191
g0
(g3520
g2
Ntp4192
Rp4193
(dp4194
g3524
F0.5
sg3525
I1
sg3526
g3527
((dp4195
I00
I1
stp4196
Rp4197
sg3531
I2
sg3532
F2.0
sbs(g90
g36
tp4198
g0
(g3520
g2
Ntp4199
Rp4200
(dp4201
g3524
F0.5
sg3525
I10
sg3526
g3527
((dp4202
I00
I10
stp4203
Rp4204
sg3531
I2
sg3532
F11.0
sbs(g496
g448
tp4205
g0
(g3520
g2
Ntp4206
Rp4207
(dp4208
g3524
F0.5
sg3525
I8
sg3526
g3527
((dp4209
I00
I8
stp4210
Rp4211
sg3531
I2
sg3532
F9.0
sbs(g1146
g1113
tp4212
g0
(g3520
g2
Ntp4213
Rp4214
(dp4215
g3524
F0.5
sg3525
I16
sg3526
g3527
((dp4216
I00
I16
stp4217
Rp4218
sg3531
I2
sg3532
F17.0
sbs(g821
g748
tp4219
g0
(g3520
g2
Ntp4220
Rp4221
(dp4222
g3524
F0.5
sg3525
I7
sg3526
g3527
((dp4223
I00
I7
stp4224
Rp4225
sg3531
I2
sg3532
F8.0
sbs(g496
g446
tp4226
g0
(g3520
g2
Ntp4227
Rp4228
(dp4229
g3524
F0.5
sg3525
I8
sg3526
g3527
((dp4230
I00
I8
stp4231
Rp4232
sg3531
I2
sg3532
F9.0
sbs(g90
g75
tp4233
g0
(g3520
g2
Ntp4234
Rp4235
(dp4236
g3524
F0.5
sg3525
I10
sg3526
g3527
((dp4237
I00
I10
stp4238
Rp4239
sg3531
I2
sg3532
F11.0
sbs(g821
g760
tp4240
g0
(g3520
g2
Ntp4241
Rp4242
(dp4243
g3524
F0.5
sg3525
I7
sg3526
g3527
((dp4244
I00
I7
stp4245
Rp4246
sg3531
I2
sg3532
F8.0
sbs(g1552
g1474
tp4247
g0
(g3520
g2
Ntp4248
Rp4249
(dp4250
g3524
F0.5
sg3525
I1
sg3526
g3527
((dp4251
I00
I1
stp4252
Rp4253
sg3531
I2
sg3532
F2.0
sbs(g90
g66
tp4254
g0
(g3520
g2
Ntp4255
Rp4256
(dp4257
g3524
F0.5
sg3525
I10
sg3526
g3527
((dp4258
I00
I10
stp4259
Rp4260
sg3531
I2
sg3532
F11.0
sbs(g1146
g1070
tp4261
g0
(g3520
g2
Ntp4262
Rp4263
(dp4264
g3524
F0.5
sg3525
I16
sg3526
g3527
((dp4265
I00
I16
stp4266
Rp4267
sg3531
I2
sg3532
F17.0
sbs(g496
g435
tp4268
g0
(g3520
g2
Ntp4269
Rp4270
(dp4271
g3524
F0.5
sg3525
I8
sg3526
g3527
((dp4272
I00
I8
stp4273
Rp4274
sg3531
I2
sg3532
F9.0
sbs(g1146
g1127
tp4275
g0
(g3520
g2
Ntp4276
Rp4277
(dp4278
g3524
F0.5
sg3525
I16
sg3526
g3527
((dp4279
I00
I15
sI01
I1
stp4280
Rp4281
sg3531
I2
sg3532
F17.0
sbs(g1552
g1477
tp4282
g0
(g3520
g2
Ntp4283
Rp4284
(dp4285
g3524
F0.5
sg3525
I1
sg3526
g3527
((dp4286
I00
I1
stp4287
Rp4288
sg3531
I2
sg3532
F2.0
sbs(g90
g24
tp4289
g0
(g3520
g2
Ntp4290
Rp4291
(dp4292
g3524
F0.5
sg3525
I10
sg3526
g3527
((dp4293
I00
I9
sI01
I1
stp4294
Rp4295
sg3531
I2
sg3532
F11.0
sbs(g1552
g1516
tp4296
g0
(g3520
g2
Ntp4297
Rp4298
(dp4299
g3524
F0.5
sg3525
I1
sg3526
g3527
((dp4300
I00
I1
stp4301
Rp4302
sg3531
I2
sg3532
F2.0
sbs(g496
g447
tp4303
g0
(g3520
g2
Ntp4304
Rp4305
(dp4306
g3524
F0.5
sg3525
I8
sg3526
g3527
((dp4307
I00
I7
sI01
I1
stp4308
Rp4309
sg3531
I2
sg3532
F9.0
sbs(g1146
g1083
tp4310
g0
(g3520
g2
Ntp4311
Rp4312
(dp4313
g3524
F0.5
sg3525
I16
sg3526
g3527
((dp4314
I00
I14
sI01
I2
stp4315
Rp4316
sg3531
I2
sg3532
F17.0
sbs(g90
g34
tp4317
g0
(g3520
g2
Ntp4318
Rp4319
(dp4320
g3524
F0.5
sg3525
I10
sg3526
g3527
((dp4321
I00
I9
sI01
I1
stp4322
Rp4323
sg3531
I2
sg3532
F11.0
sbs(g496
g471
tp4324
g0
(g3520
g2
Ntp4325
Rp4326
(dp4327
g3524
F0.5
sg3525
I8
sg3526
g3527
((dp4328
I00
I8
stp4329
Rp4330
sg3531
I2
sg3532
F9.0
sbs(g821
g793
tp4331
g0
(g3520
g2
Ntp4332
Rp4333
(dp4334
g3524
F0.5
sg3525
I7
sg3526
g3527
((dp4335
I00
I7
stp4336
Rp4337
sg3531
I2
sg3532
F8.0
sbs(g90
g64
tp4338
g0
(g3520
g2
Ntp4339
Rp4340
(dp4341
g3524
F0.5
sg3525
I10
sg3526
g3527
((dp4342
I00
I10
stp4343
Rp4344
sg3531
I2
sg3532
F11.0
sbs(g821
g753
tp4345
g0
(g3520
g2
Ntp4346
Rp4347
(dp4348
g3524
F0.5
sg3525
I7
sg3526
g3527
((dp4349
I00
I7
stp4350
Rp4351
sg3531
I2
sg3532
F8.0
sbs(g821
g768
tp4352
g0
(g3520
g2
Ntp4353
Rp4354
(dp4355
g3524
F0.5
sg3525
I7
sg3526
g3527
((dp4356
I00
I7
stp4357
Rp4358
sg3531
I2
sg3532
F8.0
sbs(g1552
g1511
tp4359
g0
(g3520
g2
Ntp4360
Rp4361
(dp4362
g3524
F0.5
sg3525
I1
sg3526
g3527
((dp4363
I00
I1
stp4364
Rp4365
sg3531
I2
sg3532
F2.0
sbs(g1552
g1521
tp4366
g0
(g3520
g2
Ntp4367
Rp4368
(dp4369
g3524
F0.5
sg3525
I1
sg3526
g3527
((dp4370
I00
I1
stp4371
Rp4372
sg3531
I2
sg3532
F2.0
sbs(g1552
g1485
tp4373
g0
(g3520
g2
Ntp4374
Rp4375
(dp4376
g3524
F0.5
sg3525
I1
sg3526
g3527
((dp4377
I00
I1
stp4378
Rp4379
sg3531
I2
sg3532
F2.0
sbs(g496
g484
tp4380
g0
(g3520
g2
Ntp4381
Rp4382
(dp4383
g3524
F0.5
sg3525
I8
sg3526
g3527
((dp4384
I00
I8
stp4385
Rp4386
sg3531
I2
sg3532
F9.0
sbs(g496
g481
tp4387
g0
(g3520
g2
Ntp4388
Rp4389
(dp4390
g3524
F0.5
sg3525
I8
sg3526
g3527
((dp4391
I00
I8
stp4392
Rp4393
sg3531
I2
sg3532
F9.0
sbs(g90
g60
tp4394
g0
(g3520
g2
Ntp4395
Rp4396
(dp4397
g3524
F0.5
sg3525
I10
sg3526
g3527
((dp4398
I00
I10
stp4399
Rp4400
sg3531
I2
sg3532
F11.0
sbs(g821
g786
tp4401
g0
(g3520
g2
Ntp4402
Rp4403
(dp4404
g3524
F0.5
sg3525
I7
sg3526
g3527
((dp4405
I00
I7
stp4406
Rp4407
sg3531
I2
sg3532
F8.0
sbs(g1552
g1497
tp4408
g0
(g3520
g2
Ntp4409
Rp4410
(dp4411
g3524
F0.5
sg3525
I1
sg3526
g3527
((dp4412
I00
I1
stp4413
Rp4414
sg3531
I2
sg3532
F2.0
sbs(g90
g80
tp4415
g0
(g3520
g2
Ntp4416
Rp4417
(dp4418
g3524
F0.5
sg3525
I10
sg3526
g3527
((dp4419
I00
I10
stp4420
Rp4421
sg3531
I2
sg3532
F11.0
sbs(g1146
g1074
tp4422
g0
(g3520
g2
Ntp4423
Rp4424
(dp4425
g3524
F0.5
sg3525
I16
sg3526
g3527
((dp4426
I00
I15
sI01
I1
stp4427
Rp4428
sg3531
I2
sg3532
F17.0
sbs(g1552
g1504
tp4429
g0
(g3520
g2
Ntp4430
Rp4431
(dp4432
g3524
F0.5
sg3525
I1
sg3526
g3527
((dp4433
I00
I1
stp4434
Rp4435
sg3531
I2
sg3532
F2.0
sbs(g821
g783
tp4436
g0
(g3520
g2
Ntp4437
Rp4438
(dp4439
g3524
F0.5
sg3525
I7
sg3526
g3527
((dp4440
I00
I7
stp4441
Rp4442
sg3531
I2
sg3532
F8.0
sbs(g1552
g1525
tp4443
g0
(g3520
g2
Ntp4444
Rp4445
(dp4446
g3524
F0.5
sg3525
I1
sg3526
g3527
((dp4447
I00
I1
stp4448
Rp4449
sg3531
I2
sg3532
F2.0
sbs(g821
g816
tp4450
g0
(g3520
g2
Ntp4451
Rp4452
(dp4453
g3524
F0.5
sg3525
I7
sg3526
g3527
((dp4454
I00
I7
stp4455
Rp4456
sg3531
I2
sg3532
F8.0
sbs(g1552
g1491
tp4457
g0
(g3520
g2
Ntp4458
Rp4459
(dp4460
g3524
F0.5
sg3525
I1
sg3526
g3527
((dp4461
I00
I1
stp4462
Rp4463
sg3531
I2
sg3532
F2.0
sbs(g1552
g1510
tp4464
g0
(g3520
g2
Ntp4465
Rp4466
(dp4467
g3524
F0.5
sg3525
I1
sg3526
g3527
((dp4468
I00
I1
stp4469
Rp4470
sg3531
I2
sg3532
F2.0
sbs(g821
g799
tp4471
g0
(g3520
g2
Ntp4472
Rp4473
(dp4474
g3524
F0.5
sg3525
I7
sg3526
g3527
((dp4475
I00
I7
stp4476
Rp4477
sg3531
I2
sg3532
F8.0
sbs(g496
g477
tp4478
g0
(g3520
g2
Ntp4479
Rp4480
(dp4481
g3524
F0.5
sg3525
I8
sg3526
g3527
((dp4482
I00
I8
stp4483
Rp4484
sg3531
I2
sg3532
F9.0
sbs(g821
g778
tp4485
g0
(g3520
g2
Ntp4486
Rp4487
(dp4488
g3524
F0.5
sg3525
I7
sg3526
g3527
((dp4489
I00
I7
stp4490
Rp4491
sg3531
I2
sg3532
F8.0
sbs(g1146
g1120
tp4492
g0
(g3520
g2
Ntp4493
Rp4494
(dp4495
g3524
F0.5
sg3525
I16
sg3526
g3527
((dp4496
I00
I16
stp4497
Rp4498
sg3531
I2
sg3532
F17.0
sbs(g1146
g1085
tp4499
g0
(g3520
g2
Ntp4500
Rp4501
(dp4502
g3524
F0.5
sg3525
I16
sg3526
g3527
((dp4503
I00
I14
sI01
I2
stp4504
Rp4505
sg3531
I2
sg3532
F17.0
sbs(g1552
g1544
tp4506
g0
(g3520
g2
Ntp4507
Rp4508
(dp4509
g3524
F0.5
sg3525
I1
sg3526
g3527
((dp4510
I00
I1
stp4511
Rp4512
sg3531
I2
sg3532
F2.0
sbs(g496
g438
tp4513
g0
(g3520
g2
Ntp4514
Rp4515
(dp4516
g3524
F0.5
sg3525
I8
sg3526
g3527
((dp4517
I00
I8
stp4518
Rp4519
sg3531
I2
sg3532
F9.0
sbs(g90
g52
tp4520
g0
(g3520
g2
Ntp4521
Rp4522
(dp4523
g3524
F0.5
sg3525
I10
sg3526
g3527
((dp4524
I00
I10
stp4525
Rp4526
sg3531
I2
sg3532
F11.0
sbs(g1552
g1508
tp4527
g0
(g3520
g2
Ntp4528
Rp4529
(dp4530
g3524
F0.5
sg3525
I1
sg3526
g3527
((dp4531
I00
I1
stp4532
Rp4533
sg3531
I2
sg3532
F2.0
sbs(g1552
g1538
tp4534
g0
(g3520
g2
Ntp4535
Rp4536
(dp4537
g3524
F0.5
sg3525
I1
sg3526
g3527
((dp4538
I00
I1
stp4539
Rp4540
sg3531
I2
sg3532
F2.0
sbs(g496
g442
tp4541
g0
(g3520
g2
Ntp4542
Rp4543
(dp4544
g3524
F0.5
sg3525
I8
sg3526
g3527
((dp4545
I00
I8
stp4546
Rp4547
sg3531
I2
sg3532
F9.0
sbs(g1552
g1483
tp4548
g0
(g3520
g2
Ntp4549
Rp4550
(dp4551
g3524
F0.5
sg3525
I1
sg3526
g3527
((dp4552
I00
I1
stp4553
Rp4554
sg3531
I2
sg3532
F2.0
sbs(g1146
g1124
tp4555
g0
(g3520
g2
Ntp4556
Rp4557
(dp4558
g3524
F0.5
sg3525
I16
sg3526
g3527
((dp4559
I00
I9
sI01
I7
stp4560
Rp4561
sg3531
I2
sg3532
F17.0
sbs(g1146
g1125
tp4562
g0
(g3520
g2
Ntp4563
Rp4564
(dp4565
g3524
F0.5
sg3525
I16
sg3526
g3527
((dp4566
I00
I16
stp4567
Rp4568
sg3531
I2
sg3532
F17.0
sbs(g1552
g1530
tp4569
g0
(g3520
g2
Ntp4570
Rp4571
(dp4572
g3524
F0.5
sg3525
I1
sg3526
g3527
((dp4573
I00
I1
stp4574
Rp4575
sg3531
I2
sg3532
F2.0
sbs(g1552
g1518
tp4576
g0
(g3520
g2
Ntp4577
Rp4578
(dp4579
g3524
F0.5
sg3525
I1
sg3526
g3527
((dp4580
I00
I1
stp4581
Rp4582
sg3531
I2
sg3532
F2.0
sbs(g90
g62
tp4583
g0
(g3520
g2
Ntp4584
Rp4585
(dp4586
g3524
F0.5
sg3525
I10
sg3526
g3527
((dp4587
I00
I10
stp4588
Rp4589
sg3531
I2
sg3532
F11.0
sbs(g496
g480
tp4590
g0
(g3520
g2
Ntp4591
Rp4592
(dp4593
g3524
F0.5
sg3525
I8
sg3526
g3527
((dp4594
I00
I7
sI01
I1
stp4595
Rp4596
sg3531
I2
sg3532
F9.0
sbs(g90
g11
tp4597
g0
(g3520
g2
Ntp4598
Rp4599
(dp4600
g3524
F0.5
sg3525
I10
sg3526
g3527
((dp4601
I00
I10
stp4602
Rp4603
sg3531
I2
sg3532
F11.0
sbs(g1146
g1139
tp4604
g0
(g3520
g2
Ntp4605
Rp4606
(dp4607
g3524
F0.5
sg3525
I16
sg3526
g3527
((dp4608
I00
I16
stp4609
Rp4610
sg3531
I2
sg3532
F17.0
sbs(g821
g818
tp4611
g0
(g3520
g2
Ntp4612
Rp4613
(dp4614
g3524
F0.5
sg3525
I7
sg3526
g3527
((dp4615
I00
I6
sI01
I1
stp4616
Rp4617
sg3531
I2
sg3532
F8.0
sbs(g496
g423
tp4618
g0
(g3520
g2
Ntp4619
Rp4620
(dp4621
g3524
F0.5
sg3525
I8
sg3526
g3527
((dp4622
I00
I8
stp4623
Rp4624
sg3531
I2
sg3532
F9.0
sbs(g1146
g1131
tp4625
g0
(g3520
g2
Ntp4626
Rp4627
(dp4628
g3524
F0.5
sg3525
I16
sg3526
g3527
((dp4629
I00
I15
sI01
I1
stp4630
Rp4631
sg3531
I2
sg3532
F17.0
sbs(g1552
g1519
tp4632
g0
(g3520
g2
Ntp4633
Rp4634
(dp4635
g3524
F0.5
sg3525
I1
sg3526
g3527
((dp4636
I00
I1
stp4637
Rp4638
sg3531
I2
sg3532
F2.0
sbs(g496
g434
tp4639
g0
(g3520
g2
Ntp4640
Rp4641
(dp4642
g3524
F0.5
sg3525
I8
sg3526
g3527
((dp4643
I00
I8
stp4644
Rp4645
sg3531
I2
sg3532
F9.0
sbs(g90
g71
tp4646
g0
(g3520
g2
Ntp4647
Rp4648
(dp4649
g3524
F0.5
sg3525
I10
sg3526
g3527
((dp4650
I00
I10
stp4651
Rp4652
sg3531
I2
sg3532
F11.0
sbs(g1146
g1116
tp4653
g0
(g3520
g2
Ntp4654
Rp4655
(dp4656
g3524
F0.5
sg3525
I16
sg3526
g3527
((dp4657
I00
I16
stp4658
Rp4659
sg3531
I2
sg3532
F17.0
sbs(g821
g744
tp4660
g0
(g3520
g2
Ntp4661
Rp4662
(dp4663
g3524
F0.5
sg3525
I7
sg3526
g3527
((dp4664
I00
I7
stp4665
Rp4666
sg3531
I2
sg3532
F8.0
sbs(g1552
g1526
tp4667
g0
(g3520
g2
Ntp4668
Rp4669
(dp4670
g3524
F0.5
sg3525
I1
sg3526
g3527
((dp4671
I00
I1
stp4672
Rp4673
sg3531
I2
sg3532
F2.0
sbs(g496
g453
tp4674
g0
(g3520
g2
Ntp4675
Rp4676
(dp4677
g3524
F0.5
sg3525
I8
sg3526
g3527
((dp4678
I00
I7
sI01
I1
stp4679
Rp4680
sg3531
I2
sg3532
F9.0
sbs(g496
g436
tp4681
g0
(g3520
g2
Ntp4682
Rp4683
(dp4684
g3524
F0.5
sg3525
I8
sg3526
g3527
((dp4685
I00
I7
sI01
I1
stp4686
Rp4687
sg3531
I2
sg3532
F9.0
sbs(g821
g747
tp4688
g0
(g3520
g2
Ntp4689
Rp4690
(dp4691
g3524
F0.5
sg3525
I7
sg3526
g3527
((dp4692
I00
I7
stp4693
Rp4694
sg3531
I2
sg3532
F8.0
sbs(g821
g781
tp4695
g0
(g3520
g2
Ntp4696
Rp4697
(dp4698
g3524
F0.5
sg3525
I7
sg3526
g3527
((dp4699
I00
I6
sI01
I1
stp4700
Rp4701
sg3531
I2
sg3532
F8.0
sbs(g496
g425
tp4702
g0
(g3520
g2
Ntp4703
Rp4704
(dp4705
g3524
F0.5
sg3525
I8
sg3526
g3527
((dp4706
I00
I8
stp4707
Rp4708
sg3531
I2
sg3532
F9.0
sbs(g1146
g1119
tp4709
g0
(g3520
g2
Ntp4710
Rp4711
(dp4712
g3524
F0.5
sg3525
I16
sg3526
g3527
((dp4713
I00
I16
stp4714
Rp4715
sg3531
I2
sg3532
F17.0
sbs(g821
g796
tp4716
g0
(g3520
g2
Ntp4717
Rp4718
(dp4719
g3524
F0.5
sg3525
I7
sg3526
g3527
((dp4720
I00
I7
stp4721
Rp4722
sg3531
I2
sg3532
F8.0
sbs(g1146
g1108
tp4723
g0
(g3520
g2
Ntp4724
Rp4725
(dp4726
g3524
F0.5
sg3525
I16
sg3526
g3527
((dp4727
I00
I12
sI01
I4
stp4728
Rp4729
sg3531
I2
sg3532
F17.0
sbs(g1146
g1144
tp4730
g0
(g3520
g2
Ntp4731
Rp4732
(dp4733
g3524
F0.5
sg3525
I16
sg3526
g3527
((dp4734
I00
I14
sI01
I2
stp4735
Rp4736
sg3531
I2
sg3532
F17.0
sbs(g496
g428
tp4737
g0
(g3520
g2
Ntp4738
Rp4739
(dp4740
g3524
F0.5
sg3525
I8
sg3526
g3527
((dp4741
I00
I8
stp4742
Rp4743
sg3531
I2
sg3532
F9.0
sbs(g496
g460
tp4744
g0
(g3520
g2
Ntp4745
Rp4746
(dp4747
g3524
F0.5
sg3525
I8
sg3526
g3527
((dp4748
I00
I7
sI01
I1
stp4749
Rp4750
sg3531
I2
sg3532
F9.0
sbs(g496
g464
tp4751
g0
(g3520
g2
Ntp4752
Rp4753
(dp4754
g3524
F0.5
sg3525
I8
sg3526
g3527
((dp4755
I00
I7
sI01
I1
stp4756
Rp4757
sg3531
I2
sg3532
F9.0
sbs(g496
g482
tp4758
g0
(g3520
g2
Ntp4759
Rp4760
(dp4761
g3524
F0.5
sg3525
I8
sg3526
g3527
((dp4762
I00
I7
sI01
I1
stp4763
Rp4764
sg3531
I2
sg3532
F9.0
sbs(g1552
g1498
tp4765
g0
(g3520
g2
Ntp4766
Rp4767
(dp4768
g3524
F0.5
sg3525
I1
sg3526
g3527
((dp4769
I00
I1
stp4770
Rp4771
sg3531
I2
sg3532
F2.0
sbs(g1552
g1517
tp4772
g0
(g3520
g2
Ntp4773
Rp4774
(dp4775
g3524
F0.5
sg3525
I1
sg3526
g3527
((dp4776
I01
I1
stp4777
Rp4778
sg3531
I2
sg3532
F2.0
sbs(g90
g16
tp4779
g0
(g3520
g2
Ntp4780
Rp4781
(dp4782
g3524
F0.5
sg3525
I10
sg3526
g3527
((dp4783
I00
I8
sI01
I2
stp4784
Rp4785
sg3531
I2
sg3532
F11.0
sbs(g821
g775
tp4786
g0
(g3520
g2
Ntp4787
Rp4788
(dp4789
g3524
F0.5
sg3525
I7
sg3526
g3527
((dp4790
I00
I7
stp4791
Rp4792
sg3531
I2
sg3532
F8.0
sbs(g1552
g1532
tp4793
g0
(g3520
g2
Ntp4794
Rp4795
(dp4796
g3524
F0.5
sg3525
I1
sg3526
g3527
((dp4797
I00
I1
stp4798
Rp4799
sg3531
I2
sg3532
F2.0
sbs(g496
g493
tp4800
g0
(g3520
g2
Ntp4801
Rp4802
(dp4803
g3524
F0.5
sg3525
I8
sg3526
g3527
((dp4804
I00
I8
stp4805
Rp4806
sg3531
I2
sg3532
F9.0
sbs(g496
g465
tp4807
g0
(g3520
g2
Ntp4808
Rp4809
(dp4810
g3524
F0.5
sg3525
I8
sg3526
g3527
((dp4811
I00
I8
stp4812
Rp4813
sg3531
I2
sg3532
F9.0
sbs(g821
g785
tp4814
g0
(g3520
g2
Ntp4815
Rp4816
(dp4817
g3524
F0.5
sg3525
I7
sg3526
g3527
((dp4818
I00
I7
stp4819
Rp4820
sg3531
I2
sg3532
F8.0
sbs(g1146
g1101
tp4821
g0
(g3520
g2
Ntp4822
Rp4823
(dp4824
g3524
F0.5
sg3525
I16
sg3526
g3527
((dp4825
I00
I16
stp4826
Rp4827
sg3531
I2
sg3532
F17.0
sbs(g1146
g1088
tp4828
g0
(g3520
g2
Ntp4829
Rp4830
(dp4831
g3524
F0.5
sg3525
I16
sg3526
g3527
((dp4832
I00
I16
stp4833
Rp4834
sg3531
I2
sg3532
F17.0
sbs(g1552
g1476
tp4835
g0
(g3520
g2
Ntp4836
Rp4837
(dp4838
g3524
F0.5
sg3525
I1
sg3526
g3527
((dp4839
I00
I1
stp4840
Rp4841
sg3531
I2
sg3532
F2.0
sbs(g821
g752
tp4842
g0
(g3520
g2
Ntp4843
Rp4844
(dp4845
g3524
F0.5
sg3525
I7
sg3526
g3527
((dp4846
I00
I7
stp4847
Rp4848
sg3531
I2
sg3532
F8.0
sbs(g90
g18
tp4849
g0
(g3520
g2
Ntp4850
Rp4851
(dp4852
g3524
F0.5
sg3525
I10
sg3526
g3527
((dp4853
I00
I10
stp4854
Rp4855
sg3531
I2
sg3532
F11.0
sbs(g821
g780
tp4856
g0
(g3520
g2
Ntp4857
Rp4858
(dp4859
g3524
F0.5
sg3525
I7
sg3526
g3527
((dp4860
I00
I7
stp4861
Rp4862
sg3531
I2
sg3532
F8.0
sbs(g90
g28
tp4863
g0
(g3520
g2
Ntp4864
Rp4865
(dp4866
g3524
F0.5
sg3525
I10
sg3526
g3527
((dp4867
I00
I6
sI01
I4
stp4868
Rp4869
sg3531
I2
sg3532
F11.0
sbs(g1146
g1110
tp4870
g0
(g3520
g2
Ntp4871
Rp4872
(dp4873
g3524
F0.5
sg3525
I16
sg3526
g3527
((dp4874
I00
I16
stp4875
Rp4876
sg3531
I2
sg3532
F17.0
sbs(g90
g84
tp4877
g0
(g3520
g2
Ntp4878
Rp4879
(dp4880
g3524
F0.5
sg3525
I10
sg3526
g3527
((dp4881
I00
I10
stp4882
Rp4883
sg3531
I2
sg3532
F11.0
sbs(g1552
g1492
tp4884
g0
(g3520
g2
Ntp4885
Rp4886
(dp4887
g3524
F0.5
sg3525
I1
sg3526
g3527
((dp4888
I00
I1
stp4889
Rp4890
sg3531
I2
sg3532
F2.0
sbs(g90
g29
tp4891
g0
(g3520
g2
Ntp4892
Rp4893
(dp4894
g3524
F0.5
sg3525
I10
sg3526
g3527
((dp4895
I00
I10
stp4896
Rp4897
sg3531
I2
sg3532
F11.0
sbs(g1146
g1140
tp4898
g0
(g3520
g2
Ntp4899
Rp4900
(dp4901
g3524
F0.5
sg3525
I16
sg3526
g3527
((dp4902
I00
I13
sI01
I3
stp4903
Rp4904
sg3531
I2
sg3532
F17.0
sbs(g90
g20
tp4905
g0
(g3520
g2
Ntp4906
Rp4907
(dp4908
g3524
F0.5
sg3525
I10
sg3526
g3527
((dp4909
I00
I10
stp4910
Rp4911
sg3531
I2
sg3532
F11.0
sbs(g1146
g1111
tp4912
g0
(g3520
g2
Ntp4913
Rp4914
(dp4915
g3524
F0.5
sg3525
I16
sg3526
g3527
((dp4916
I00
I12
sI01
I4
stp4917
Rp4918
sg3531
I2
sg3532
F17.0
sbs(g496
g469
tp4919
g0
(g3520
g2
Ntp4920
Rp4921
(dp4922
g3524
F0.5
sg3525
I8
sg3526
g3527
((dp4923
I00
I8
stp4924
Rp4925
sg3531
I2
sg3532
F9.0
sbs(g1146
g1143
tp4926
g0
(g3520
g2
Ntp4927
Rp4928
(dp4929
g3524
F0.5
sg3525
I16
sg3526
g3527
((dp4930
I00
I16
stp4931
Rp4932
sg3531
I2
sg3532
F17.0
sbs(g1146
g1134
tp4933
g0
(g3520
g2
Ntp4934
Rp4935
(dp4936
g3524
F0.5
sg3525
I16
sg3526
g3527
((dp4937
I00
I15
sI01
I1
stp4938
Rp4939
sg3531
I2
sg3532
F17.0
sbs(g1552
g1482
tp4940
g0
(g3520
g2
Ntp4941
Rp4942
(dp4943
g3524
F0.5
sg3525
I1
sg3526
g3527
((dp4944
I00
I1
stp4945
Rp4946
sg3531
I2
sg3532
F2.0
sbs(g821
g802
tp4947
g0
(g3520
g2
Ntp4948
Rp4949
(dp4950
g3524
F0.5
sg3525
I7
sg3526
g3527
((dp4951
I00
I7
stp4952
Rp4953
sg3531
I2
sg3532
F8.0
sbs(g90
g74
tp4954
g0
(g3520
g2
Ntp4955
Rp4956
(dp4957
g3524
F0.5
sg3525
I10
sg3526
g3527
((dp4958
I00
I10
stp4959
Rp4960
sg3531
I2
sg3532
F11.0
sbs(g90
g69
tp4961
g0
(g3520
g2
Ntp4962
Rp4963
(dp4964
g3524
F0.5
sg3525
I10
sg3526
g3527
((dp4965
I00
I10
stp4966
Rp4967
sg3531
I2
sg3532
F11.0
sbs(g496
g492
tp4968
g0
(g3520
g2
Ntp4969
Rp4970
(dp4971
g3524
F0.5
sg3525
I8
sg3526
g3527
((dp4972
I00
I8
stp4973
Rp4974
sg3531
I2
sg3532
F9.0
sbs(g821
g758
tp4975
g0
(g3520
g2
Ntp4976
Rp4977
(dp4978
g3524
F0.5
sg3525
I7
sg3526
g3527
((dp4979
I00
I7
stp4980
Rp4981
sg3531
I2
sg3532
F8.0
sbs(g496
g461
tp4982
g0
(g3520
g2
Ntp4983
Rp4984
(dp4985
g3524
F0.5
sg3525
I8
sg3526
g3527
((dp4986
I00
I8
stp4987
Rp4988
sg3531
I2
sg3532
F9.0
sbs(g1552
g1527
tp4989
g0
(g3520
g2
Ntp4990
Rp4991
(dp4992
g3524
F0.5
sg3525
I1
sg3526
g3527
((dp4993
I00
I1
stp4994
Rp4995
sg3531
I2
sg3532
F2.0
sbs(g90
g13
tp4996
g0
(g3520
g2
Ntp4997
Rp4998
(dp4999
g3524
F0.5
sg3525
I10
sg3526
g3527
((dp5000
I00
I7
sI01
I3
stp5001
Rp5002
sg3531
I2
sg3532
F11.0
sbs(g1552
g1524
tp5003
g0
(g3520
g2
Ntp5004
Rp5005
(dp5006
g3524
F0.5
sg3525
I1
sg3526
g3527
((dp5007
I00
I1
stp5008
Rp5009
sg3531
I2
sg3532
F2.0
sbs(g1552
g1475
tp5010
g0
(g3520
g2
Ntp5011
Rp5012
(dp5013
g3524
F0.5
sg3525
I1
sg3526
g3527
((dp5014
I00
I1
stp5015
Rp5016
sg3531
I2
sg3532
F2.0
sbs(g90
g32
tp5017
g0
(g3520
g2
Ntp5018
Rp5019
(dp5020
g3524
F0.5
sg3525
I10
sg3526
g3527
((dp5021
I00
I9
sI01
I1
stp5022
Rp5023
sg3531
I2
sg3532
F11.0
sbs(g1552
g1489
tp5024
g0
(g3520
g2
Ntp5025
Rp5026
(dp5027
g3524
F0.5
sg3525
I1
sg3526
g3527
((dp5028
I00
I1
stp5029
Rp5030
sg3531
I2
sg3532
F2.0
sbs(g1146
g1091
tp5031
g0
(g3520
g2
Ntp5032
Rp5033
(dp5034
g3524
F0.5
sg3525
I16
sg3526
g3527
((dp5035
I00
I16
stp5036
Rp5037
sg3531
I2
sg3532
F17.0
sbs(g496
g458
tp5038
g0
(g3520
g2
Ntp5039
Rp5040
(dp5041
g3524
F0.5
sg3525
I8
sg3526
g3527
((dp5042
I00
I8
stp5043
Rp5044
sg3531
I2
sg3532
F9.0
sbs(g1552
g1522
tp5045
g0
(g3520
g2
Ntp5046
Rp5047
(dp5048
g3524
F0.5
sg3525
I1
sg3526
g3527
((dp5049
I00
I1
stp5050
Rp5051
sg3531
I2
sg3532
F2.0
sbs(g821
g809
tp5052
g0
(g3520
g2
Ntp5053
Rp5054
(dp5055
g3524
F0.5
sg3525
I7
sg3526
g3527
((dp5056
I00
I7
stp5057
Rp5058
sg3531
I2
sg3532
F8.0
sbs(g90
g14
tp5059
g0
(g3520
g2
Ntp5060
Rp5061
(dp5062
g3524
F0.5
sg3525
I10
sg3526
g3527
((dp5063
I00
I10
stp5064
Rp5065
sg3531
I2
sg3532
F11.0
sbs(g90
g31
tp5066
g0
(g3520
g2
Ntp5067
Rp5068
(dp5069
g3524
F0.5
sg3525
I10
sg3526
g3527
((dp5070
I00
I10
stp5071
Rp5072
sg3531
I2
sg3532
F11.0
sbs(g496
g474
tp5073
g0
(g3520
g2
Ntp5074
Rp5075
(dp5076
g3524
F0.5
sg3525
I8
sg3526
g3527
((dp5077
I00
I8
stp5078
Rp5079
sg3531
I2
sg3532
F9.0
sbs(g1552
g1501
tp5080
g0
(g3520
g2
Ntp5081
Rp5082
(dp5083
g3524
F0.5
sg3525
I1
sg3526
g3527
((dp5084
I00
I1
stp5085
Rp5086
sg3531
I2
sg3532
F2.0
sbs(g1146
g1086
tp5087
g0
(g3520
g2
Ntp5088
Rp5089
(dp5090
g3524
F0.5
sg3525
I16
sg3526
g3527
((dp5091
I00
I16
stp5092
Rp5093
sg3531
I2
sg3532
F17.0
sbs(g496
g462
tp5094
g0
(g3520
g2
Ntp5095
Rp5096
(dp5097
g3524
F0.5
sg3525
I8
sg3526
g3527
((dp5098
I00
I8
stp5099
Rp5100
sg3531
I2
sg3532
F9.0
sbs(g821
g763
tp5101
g0
(g3520
g2
Ntp5102
Rp5103
(dp5104
g3524
F0.5
sg3525
I7
sg3526
g3527
((dp5105
I00
I6
sI01
I1
stp5106
Rp5107
sg3531
I2
sg3532
F8.0
sbs(g821
g787
tp5108
g0
(g3520
g2
Ntp5109
Rp5110
(dp5111
g3524
F0.5
sg3525
I7
sg3526
g3527
((dp5112
I00
I6
sI01
I1
stp5113
Rp5114
sg3531
I2
sg3532
F8.0
sbs(g90
g89
tp5115
g0
(g3520
g2
Ntp5116
Rp5117
(dp5118
g3524
F0.5
sg3525
I10
sg3526
g3527
((dp5119
I00
I10
stp5120
Rp5121
sg3531
I2
sg3532
F11.0
sbs(g496
g463
tp5122
g0
(g3520
g2
Ntp5123
Rp5124
(dp5125
g3524
F0.5
sg3525
I8
sg3526
g3527
((dp5126
I00
I7
sI01
I1
stp5127
Rp5128
sg3531
I2
sg3532
F9.0
sbs(g821
g746
tp5129
g0
(g3520
g2
Ntp5130
Rp5131
(dp5132
g3524
F0.5
sg3525
I7
sg3526
g3527
((dp5133
I00
I7
stp5134
Rp5135
sg3531
I2
sg3532
F8.0
sbs(g90
g88
tp5136
g0
(g3520
g2
Ntp5137
Rp5138
(dp5139
g3524
F0.5
sg3525
I10
sg3526
g3527
((dp5140
I00
I8
sI01
I2
stp5141
Rp5142
sg3531
I2
sg3532
F11.0
sbs(g496
g470
tp5143
g0
(g3520
g2
Ntp5144
Rp5145
(dp5146
g3524
F0.5
sg3525
I8
sg3526
g3527
((dp5147
I00
I8
stp5148
Rp5149
sg3531
I2
sg3532
F9.0
sbs(g1146
g1109
tp5150
g0
(g3520
g2
Ntp5151
Rp5152
(dp5153
g3524
F0.5
sg3525
I16
sg3526
g3527
((dp5154
I00
I14
sI01
I2
stp5155
Rp5156
sg3531
I2
sg3532
F17.0
sbs(g496
g422
tp5157
g0
(g3520
g2
Ntp5158
Rp5159
(dp5160
g3524
F0.5
sg3525
I8
sg3526
g3527
((dp5161
I00
I8
stp5162
Rp5163
sg3531
I2
sg3532
F9.0
sbs(g821
g807
tp5164
g0
(g3520
g2
Ntp5165
Rp5166
(dp5167
g3524
F0.5
sg3525
I7
sg3526
g3527
((dp5168
I00
I7
stp5169
Rp5170
sg3531
I2
sg3532
F8.0
sbs(g1146
g1121
tp5171
g0
(g3520
g2
Ntp5172
Rp5173
(dp5174
g3524
F0.5
sg3525
I16
sg3526
g3527
((dp5175
I00
I14
sI01
I2
stp5176
Rp5177
sg3531
I2
sg3532
F17.0
sbs(g1552
g1505
tp5178
g0
(g3520
g2
Ntp5179
Rp5180
(dp5181
g3524
F0.5
sg3525
I1
sg3526
g3527
((dp5182
I00
I1
stp5183
Rp5184
sg3531
I2
sg3532
F2.0
sbs(g821
g820
tp5185
g0
(g3520
g2
Ntp5186
Rp5187
(dp5188
g3524
F0.5
sg3525
I7
sg3526
g3527
((dp5189
I00
I6
sI01
I1
stp5190
Rp5191
sg3531
I2
sg3532
F8.0
sbs(g821
g819
tp5192
g0
(g3520
g2
Ntp5193
Rp5194
(dp5195
g3524
F0.5
sg3525
I7
sg3526
g3527
((dp5196
I00
I7
stp5197
Rp5198
sg3531
I2
sg3532
F8.0
sbs(g496
g418
tp5199
g0
(g3520
g2
Ntp5200
Rp5201
(dp5202
g3524
F0.5
sg3525
I8
sg3526
g3527
((dp5203
I00
I8
stp5204
Rp5205
sg3531
I2
sg3532
F9.0
sbs(g1552
g1533
tp5206
g0
(g3520
g2
Ntp5207
Rp5208
(dp5209
g3524
F0.5
sg3525
I1
sg3526
g3527
((dp5210
I00
I1
stp5211
Rp5212
sg3531
I2
sg3532
F2.0
sbs(g496
g421
tp5213
g0
(g3520
g2
Ntp5214
Rp5215
(dp5216
g3524
F0.5
sg3525
I8
sg3526
g3527
((dp5217
I00
I7
sI01
I1
stp5218
Rp5219
sg3531
I2
sg3532
F9.0
sbs(g90
g57
tp5220
g0
(g3520
g2
Ntp5221
Rp5222
(dp5223
g3524
F0.5
sg3525
I10
sg3526
g3527
((dp5224
I00
I10
stp5225
Rp5226
sg3531
I2
sg3532
F11.0
sbs(g821
g759
tp5227
g0
(g3520
g2
Ntp5228
Rp5229
(dp5230
g3524
F0.5
sg3525
I7
sg3526
g3527
((dp5231
I00
I7
stp5232
Rp5233
sg3531
I2
sg3532
F8.0
sbs(g90
g51
tp5234
g0
(g3520
g2
Ntp5235
Rp5236
(dp5237
g3524
F0.5
sg3525
I10
sg3526
g3527
((dp5238
I00
I10
stp5239
Rp5240
sg3531
I2
sg3532
F11.0
sbs(g821
g751
tp5241
g0
(g3520
g2
Ntp5242
Rp5243
(dp5244
g3524
F0.5
sg3525
I7
sg3526
g3527
((dp5245
I00
I7
stp5246
Rp5247
sg3531
I2
sg3532
F8.0
sbs(g496
g450
tp5248
g0
(g3520
g2
Ntp5249
Rp5250
(dp5251
g3524
F0.5
sg3525
I8
sg3526
g3527
((dp5252
I00
I8
stp5253
Rp5254
sg3531
I2
sg3532
F9.0
sbs(g90
g25
tp5255
g0
(g3520
g2
Ntp5256
Rp5257
(dp5258
g3524
F0.5
sg3525
I10
sg3526
g3527
((dp5259
I00
I10
stp5260
Rp5261
sg3531
I2
sg3532
F11.0
sbs(g1146
g1073
tp5262
g0
(g3520
g2
Ntp5263
Rp5264
(dp5265
g3524
F0.5
sg3525
I16
sg3526
g3527
((dp5266
I00
I16
stp5267
Rp5268
sg3531
I2
sg3532
F17.0
sbs(g496
g455
tp5269
g0
(g3520
g2
Ntp5270
Rp5271
(dp5272
g3524
F0.5
sg3525
I8
sg3526
g3527
((dp5273
I00
I8
stp5274
Rp5275
sg3531
I2
sg3532
F9.0
sbs(g1146
g1117
tp5276
g0
(g3520
g2
Ntp5277
Rp5278
(dp5279
g3524
F0.5
sg3525
I16
sg3526
g3527
((dp5280
I00
I16
stp5281
Rp5282
sg3531
I2
sg3532
F17.0
sbs(g90
g17
tp5283
g0
(g3520
g2
Ntp5284
Rp5285
(dp5286
g3524
F0.5
sg3525
I10
sg3526
g3527
((dp5287
I00
I9
sI01
I1
stp5288
Rp5289
sg3531
I2
sg3532
F11.0
sbs(g821
g805
tp5290
g0
(g3520
g2
Ntp5291
Rp5292
(dp5293
g3524
F0.5
sg3525
I7
sg3526
g3527
((dp5294
I00
I7
stp5295
Rp5296
sg3531
I2
sg3532
F8.0
sbs(g90
g70
tp5297
g0
(g3520
g2
Ntp5298
Rp5299
(dp5300
g3524
F0.5
sg3525
I10
sg3526
g3527
((dp5301
I00
I10
stp5302
Rp5303
sg3531
I2
sg3532
F11.0
sbs(g1552
g1496
tp5304
g0
(g3520
g2
Ntp5305
Rp5306
(dp5307
g3524
F0.5
sg3525
I1
sg3526
g3527
((dp5308
I00
I1
stp5309
Rp5310
sg3531
I2
sg3532
F2.0
sbs(g1146
g1079
tp5311
g0
(g3520
g2
Ntp5312
Rp5313
(dp5314
g3524
F0.5
sg3525
I16
sg3526
g3527
((dp5315
I00
I16
stp5316
Rp5317
sg3531
I2
sg3532
F17.0
sbs(g90
g72
tp5318
g0
(g3520
g2
Ntp5319
Rp5320
(dp5321
g3524
F0.5
sg3525
I10
sg3526
g3527
((dp5322
I00
I10
stp5323
Rp5324
sg3531
I2
sg3532
F11.0
sbs(g496
g456
tp5325
g0
(g3520
g2
Ntp5326
Rp5327
(dp5328
g3524
F0.5
sg3525
I8
sg3526
g3527
((dp5329
I00
I8
stp5330
Rp5331
sg3531
I2
sg3532
F9.0
sbs(g496
g495
tp5332
g0
(g3520
g2
Ntp5333
Rp5334
(dp5335
g3524
F0.5
sg3525
I8
sg3526
g3527
((dp5336
I00
I8
stp5337
Rp5338
sg3531
I2
sg3532
F9.0
sbs(g496
g479
tp5339
g0
(g3520
g2
Ntp5340
Rp5341
(dp5342
g3524
F0.5
sg3525
I8
sg3526
g3527
((dp5343
I00
I8
stp5344
Rp5345
sg3531
I2
sg3532
F9.0
sbs(g90
g65
tp5346
g0
(g3520
g2
Ntp5347
Rp5348
(dp5349
g3524
F0.5
sg3525
I10
sg3526
g3527
((dp5350
I00
I10
stp5351
Rp5352
sg3531
I2
sg3532
F11.0
sbs(g1552
g1509
tp5353
g0
(g3520
g2
Ntp5354
Rp5355
(dp5356
g3524
F0.5
sg3525
I1
sg3526
g3527
((dp5357
I00
I1
stp5358
Rp5359
sg3531
I2
sg3532
F2.0
sbs(g821
g762
tp5360
g0
(g3520
g2
Ntp5361
Rp5362
(dp5363
g3524
F0.5
sg3525
I7
sg3526
g3527
((dp5364
I00
I7
stp5365
Rp5366
sg3531
I2
sg3532
F8.0
sbs(g1552
g1499
tp5367
g0
(g3520
g2
Ntp5368
Rp5369
(dp5370
g3524
F0.5
sg3525
I1
sg3526
g3527
((dp5371
I00
I1
stp5372
Rp5373
sg3531
I2
sg3532
F2.0
sbs(g1146
g1075
tp5374
g0
(g3520
g2
Ntp5375
Rp5376
(dp5377
g3524
F0.5
sg3525
I16
sg3526
g3527
((dp5378
I00
I15
sI01
I1
stp5379
Rp5380
sg3531
I2
sg3532
F17.0
sbs(g496
g449
tp5381
g0
(g3520
g2
Ntp5382
Rp5383
(dp5384
g3524
F0.5
sg3525
I8
sg3526
g3527
((dp5385
I00
I8
stp5386
Rp5387
sg3531
I2
sg3532
F9.0
sbs(g496
g437
tp5388
g0
(g3520
g2
Ntp5389
Rp5390
(dp5391
g3524
F0.5
sg3525
I8
sg3526
g3527
((dp5392
I00
I7
sI01
I1
stp5393
Rp5394
sg3531
I2
sg3532
F9.0
sbs(g821
g794
tp5395
g0
(g3520
g2
Ntp5396
Rp5397
(dp5398
g3524
F0.5
sg3525
I7
sg3526
g3527
((dp5399
I00
I7
stp5400
Rp5401
sg3531
I2
sg3532
F8.0
sbs(g821
g801
tp5402
g0
(g3520
g2
Ntp5403
Rp5404
(dp5405
g3524
F0.5
sg3525
I7
sg3526
g3527
((dp5406
I00
I7
stp5407
Rp5408
sg3531
I2
sg3532
F8.0
sbs(g90
g42
tp5409
g0
(g3520
g2
Ntp5410
Rp5411
(dp5412
g3524
F0.5
sg3525
I10
sg3526
g3527
((dp5413
I00
I10
stp5414
Rp5415
sg3531
I2
sg3532
F11.0
sbs(g496
g473
tp5416
g0
(g3520
g2
Ntp5417
Rp5418
(dp5419
g3524
F0.5
sg3525
I8
sg3526
g3527
((dp5420
I00
I8
stp5421
Rp5422
sg3531
I2
sg3532
F9.0
sbs(g1146
g1068
tp5423
g0
(g3520
g2
Ntp5424
Rp5425
(dp5426
g3524
F0.5
sg3525
I16
sg3526
g3527
((dp5427
I00
I16
stp5428
Rp5429
sg3531
I2
sg3532
F17.0
sbs(g1146
g1122
tp5430
g0
(g3520
g2
Ntp5431
Rp5432
(dp5433
g3524
F0.5
sg3525
I16
sg3526
g3527
((dp5434
I00
I14
sI01
I2
stp5435
Rp5436
sg3531
I2
sg3532
F17.0
sbs(g1552
g1548
tp5437
g0
(g3520
g2
Ntp5438
Rp5439
(dp5440
g3524
F0.5
sg3525
I1
sg3526
g3527
((dp5441
I00
I1
stp5442
Rp5443
sg3531
I2
sg3532
F2.0
sbs(g1552
g1523
tp5444
g0
(g3520
g2
Ntp5445
Rp5446
(dp5447
g3524
F0.5
sg3525
I1
sg3526
g3527
((dp5448
I00
I1
stp5449
Rp5450
sg3531
I2
sg3532
F2.0
sbs(g1146
g1080
tp5451
g0
(g3520
g2
Ntp5452
Rp5453
(dp5454
g3524
F0.5
sg3525
I16
sg3526
g3527
((dp5455
I00
I16
stp5456
Rp5457
sg3531
I2
sg3532
F17.0
sbs(g496
g433
tp5458
g0
(g3520
g2
Ntp5459
Rp5460
(dp5461
g3524
F0.5
sg3525
I8
sg3526
g3527
((dp5462
I00
I8
stp5463
Rp5464
sg3531
I2
sg3532
F9.0
sbs(g821
g757
tp5465
g0
(g3520
g2
Ntp5466
Rp5467
(dp5468
g3524
F0.5
sg3525
I7
sg3526
g3527
((dp5469
I00
I7
stp5470
Rp5471
sg3531
I2
sg3532
F8.0
sbs(g821
g784
tp5472
g0
(g3520
g2
Ntp5473
Rp5474
(dp5475
g3524
F0.5
sg3525
I7
sg3526
g3527
((dp5476
I00
I7
stp5477
Rp5478
sg3531
I2
sg3532
F8.0
sbs(g821
g774
tp5479
g0
(g3520
g2
Ntp5480
Rp5481
(dp5482
g3524
F0.5
sg3525
I7
sg3526
g3527
((dp5483
I00
I7
stp5484
Rp5485
sg3531
I2
sg3532
F8.0
sbs(g1146
g1100
tp5486
g0
(g3520
g2
Ntp5487
Rp5488
(dp5489
g3524
F0.5
sg3525
I16
sg3526
g3527
((dp5490
I00
I15
sI01
I1
stp5491
Rp5492
sg3531
I2
sg3532
F17.0
sbs(g496
g476
tp5493
g0
(g3520
g2
Ntp5494
Rp5495
(dp5496
g3524
F0.5
sg3525
I8
sg3526
g3527
((dp5497
I00
I7
sI01
I1
stp5498
Rp5499
sg3531
I2
sg3532
F9.0
sbs(g496
g427
tp5500
g0
(g3520
g2
Ntp5501
Rp5502
(dp5503
g3524
F0.5
sg3525
I8
sg3526
g3527
((dp5504
I00
I7
sI01
I1
stp5505
Rp5506
sg3531
I2
sg3532
F9.0
sbs(g90
g67
tp5507
g0
(g3520
g2
Ntp5508
Rp5509
(dp5510
g3524
F0.5
sg3525
I10
sg3526
g3527
((dp5511
I00
I9
sI01
I1
stp5512
Rp5513
sg3531
I2
sg3532
F11.0
sbs(g821
g788
tp5514
g0
(g3520
g2
Ntp5515
Rp5516
(dp5517
g3524
F0.5
sg3525
I7
sg3526
g3527
((dp5518
I00
I7
stp5519
Rp5520
sg3531
I2
sg3532
F8.0
sbs(g90
g59
tp5521
g0
(g3520
g2
Ntp5522
Rp5523
(dp5524
g3524
F0.5
sg3525
I10
sg3526
g3527
((dp5525
I00
I10
stp5526
Rp5527
sg3531
I2
sg3532
F11.0
sbs(g1552
g1515
tp5528
g0
(g3520
g2
Ntp5529
Rp5530
(dp5531
g3524
F0.5
sg3525
I1
sg3526
g3527
((dp5532
I00
I1
stp5533
Rp5534
sg3531
I2
sg3532
F2.0
sbs(g496
g494
tp5535
g0
(g3520
g2
Ntp5536
Rp5537
(dp5538
g3524
F0.5
sg3525
I8
sg3526
g3527
((dp5539
I00
I8
stp5540
Rp5541
sg3531
I2
sg3532
F9.0
sbs(g1146
g1115
tp5542
g0
(g3520
g2
Ntp5543
Rp5544
(dp5545
g3524
F0.5
sg3525
I16
sg3526
g3527
((dp5546
I00
I14
sI01
I2
stp5547
Rp5548
sg3531
I2
sg3532
F17.0
sbs(g90
g53
tp5549
g0
(g3520
g2
Ntp5550
Rp5551
(dp5552
g3524
F0.5
sg3525
I10
sg3526
g3527
((dp5553
I00
I10
stp5554
Rp5555
sg3531
I2
sg3532
F11.0
sbs(g1146
g1128
tp5556
g0
(g3520
g2
Ntp5557
Rp5558
(dp5559
g3524
F0.5
sg3525
I16
sg3526
g3527
((dp5560
I00
I16
stp5561
Rp5562
sg3531
I2
sg3532
F17.0
sbs(g496
g490
tp5563
g0
(g3520
g2
Ntp5564
Rp5565
(dp5566
g3524
F0.5
sg3525
I8
sg3526
g3527
((dp5567
I00
I8
stp5568
Rp5569
sg3531
I2
sg3532
F9.0
sbs(g1146
g1112
tp5570
g0
(g3520
g2
Ntp5571
Rp5572
(dp5573
g3524
F0.5
sg3525
I16
sg3526
g3527
((dp5574
I00
I16
stp5575
Rp5576
sg3531
I2
sg3532
F17.0
sbs(g821
g795
tp5577
g0
(g3520
g2
Ntp5578
Rp5579
(dp5580
g3524
F0.5
sg3525
I7
sg3526
g3527
((dp5581
I00
I6
sI01
I1
stp5582
Rp5583
sg3531
I2
sg3532
F8.0
sbs(g1146
g1130
tp5584
g0
(g3520
g2
Ntp5585
Rp5586
(dp5587
g3524
F0.5
sg3525
I16
sg3526
g3527
((dp5588
I00
I16
stp5589
Rp5590
sg3531
I2
sg3532
F17.0
sbs(g90
g46
tp5591
g0
(g3520
g2
Ntp5592
Rp5593
(dp5594
g3524
F0.5
sg3525
I10
sg3526
g3527
((dp5595
I00
I10
stp5596
Rp5597
sg3531
I2
sg3532
F11.0
sbs(g90
g43
tp5598
g0
(g3520
g2
Ntp5599
Rp5600
(dp5601
g3524
F0.5
sg3525
I10
sg3526
g3527
((dp5602
I00
I10
stp5603
Rp5604
sg3531
I2
sg3532
F11.0
sbs(g1146
g1089
tp5605
g0
(g3520
g2
Ntp5606
Rp5607
(dp5608
g3524
F0.5
sg3525
I16
sg3526
g3527
((dp5609
I00
I16
stp5610
Rp5611
sg3531
I2
sg3532
F17.0
sbs(g90
g50
tp5612
g0
(g3520
g2
Ntp5613
Rp5614
(dp5615
g3524
F0.5
sg3525
I10
sg3526
g3527
((dp5616
I00
I9
sI01
I1
stp5617
Rp5618
sg3531
I2
sg3532
F11.0
sbs(g821
g756
tp5619
g0
(g3520
g2
Ntp5620
Rp5621
(dp5622
g3524
F0.5
sg3525
I7
sg3526
g3527
((dp5623
I00
I7
stp5624
Rp5625
sg3531
I2
sg3532
F8.0
sbs(g1552
g1495
tp5626
g0
(g3520
g2
Ntp5627
Rp5628
(dp5629
g3524
F0.5
sg3525
I1
sg3526
g3527
((dp5630
I00
I1
stp5631
Rp5632
sg3531
I2
sg3532
F2.0
sbs(g1552
g1493
tp5633
g0
(g3520
g2
Ntp5634
Rp5635
(dp5636
g3524
F0.5
sg3525
I1
sg3526
g3527
((dp5637
I00
I1
stp5638
Rp5639
sg3531
I2
sg3532
F2.0
sbs(g1552
g1543
tp5640
g0
(g3520
g2
Ntp5641
Rp5642
(dp5643
g3524
F0.5
sg3525
I1
sg3526
g3527
((dp5644
I00
I1
stp5645
Rp5646
sg3531
I2
sg3532
F2.0
sbs(g1552
g1541
tp5647
g0
(g3520
g2
Ntp5648
Rp5649
(dp5650
g3524
F0.5
sg3525
I1
sg3526
g3527
((dp5651
I00
I1
stp5652
Rp5653
sg3531
I2
sg3532
F2.0
sbs(g1146
g1133
tp5654
g0
(g3520
g2
Ntp5655
Rp5656
(dp5657
g3524
F0.5
sg3525
I16
sg3526
g3527
((dp5658
I00
I15
sI01
I1
stp5659
Rp5660
sg3531
I2
sg3532
F17.0
sbs(g1146
g1087
tp5661
g0
(g3520
g2
Ntp5662
Rp5663
(dp5664
g3524
F0.5
sg3525
I16
sg3526
g3527
((dp5665
I00
I16
stp5666
Rp5667
sg3531
I2
sg3532
F17.0
sbs(g1552
g1473
tp5668
g0
(g3520
g2
Ntp5669
Rp5670
(dp5671
g3524
F0.5
sg3525
I1
sg3526
g3527
((dp5672
I00
I1
stp5673
Rp5674
sg3531
I2
sg3532
F2.0
sbs(g821
g812
tp5675
g0
(g3520
g2
Ntp5676
Rp5677
(dp5678
g3524
F0.5
sg3525
I7
sg3526
g3527
((dp5679
I00
I6
sI01
I1
stp5680
Rp5681
sg3531
I2
sg3532
F8.0
sbs(g496
g431
tp5682
g0
(g3520
g2
Ntp5683
Rp5684
(dp5685
g3524
F0.5
sg3525
I8
sg3526
g3527
((dp5686
I00
I8
stp5687
Rp5688
sg3531
I2
sg3532
F9.0
sbs(g821
g817
tp5689
g0
(g3520
g2
Ntp5690
Rp5691
(dp5692
g3524
F0.5
sg3525
I7
sg3526
g3527
((dp5693
I00
I6
sI01
I1
stp5694
Rp5695
sg3531
I2
sg3532
F8.0
sbs(g1146
g1145
tp5696
g0
(g3520
g2
Ntp5697
Rp5698
(dp5699
g3524
F0.5
sg3525
I16
sg3526
g3527
((dp5700
I00
I16
stp5701
Rp5702
sg3531
I2
sg3532
F17.0
sbs(g1146
g1084
tp5703
g0
(g3520
g2
Ntp5704
Rp5705
(dp5706
g3524
F0.5
sg3525
I16
sg3526
g3527
((dp5707
I00
I16
stp5708
Rp5709
sg3531
I2
sg3532
F17.0
sbs(g1146
g1096
tp5710
g0
(g3520
g2
Ntp5711
Rp5712
(dp5713
g3524
F0.5
sg3525
I16
sg3526
g3527
((dp5714
I00
I16
stp5715
Rp5716
sg3531
I2
sg3532
F17.0
sbs(g1552
g1520
tp5717
g0
(g3520
g2
Ntp5718
Rp5719
(dp5720
g3524
F0.5
sg3525
I1
sg3526
g3527
((dp5721
I00
I1
stp5722
Rp5723
sg3531
I2
sg3532
F2.0
sbs(g90
g58
tp5724
g0
(g3520
g2
Ntp5725
Rp5726
(dp5727
g3524
F0.5
sg3525
I10
sg3526
g3527
((dp5728
I00
I10
stp5729
Rp5730
sg3531
I2
sg3532
F11.0
sbs(g1146
g1114
tp5731
g0
(g3520
g2
Ntp5732
Rp5733
(dp5734
g3524
F0.5
sg3525
I16
sg3526
g3527
((dp5735
I00
I16
stp5736
Rp5737
sg3531
I2
sg3532
F17.0
sbs(g496
g468
tp5738
g0
(g3520
g2
Ntp5739
Rp5740
(dp5741
g3524
F0.5
sg3525
I8
sg3526
g3527
((dp5742
I00
I7
sI01
I1
stp5743
Rp5744
sg3531
I2
sg3532
F9.0
sbs(g1552
g1534
tp5745
g0
(g3520
g2
Ntp5746
Rp5747
(dp5748
g3524
F0.5
sg3525
I1
sg3526
g3527
((dp5749
I00
I1
stp5750
Rp5751
sg3531
I2
sg3532
F2.0
sbs(g496
g457
tp5752
g0
(g3520
g2
Ntp5753
Rp5754
(dp5755
g3524
F0.5
sg3525
I8
sg3526
g3527
((dp5756
I00
I8
stp5757
Rp5758
sg3531
I2
sg3532
F9.0
sbs(g1552
g1506
tp5759
g0
(g3520
g2
Ntp5760
Rp5761
(dp5762
g3524
F0.5
sg3525
I1
sg3526
g3527
((dp5763
I00
I1
stp5764
Rp5765
sg3531
I2
sg3532
F2.0
sbs(g821
g750
tp5766
g0
(g3520
g2
Ntp5767
Rp5768
(dp5769
g3524
F0.5
sg3525
I7
sg3526
g3527
((dp5770
I00
I7
stp5771
Rp5772
sg3531
I2
sg3532
F8.0
sbs(g496
g419
tp5773
g0
(g3520
g2
Ntp5774
Rp5775
(dp5776
g3524
F0.5
sg3525
I8
sg3526
g3527
((dp5777
I00
I8
stp5778
Rp5779
sg3531
I2
sg3532
F9.0
sbs(g90
g55
tp5780
g0
(g3520
g2
Ntp5781
Rp5782
(dp5783
g3524
F0.5
sg3525
I10
sg3526
g3527
((dp5784
I00
I10
stp5785
Rp5786
sg3531
I2
sg3532
F11.0
sbs(g821
g766
tp5787
g0
(g3520
g2
Ntp5788
Rp5789
(dp5790
g3524
F0.5
sg3525
I7
sg3526
g3527
((dp5791
I00
I7
stp5792
Rp5793
sg3531
I2
sg3532
F8.0
sbs(g1552
g1514
tp5794
g0
(g3520
g2
Ntp5795
Rp5796
(dp5797
g3524
F0.5
sg3525
I1
sg3526
g3527
((dp5798
I00
I1
stp5799
Rp5800
sg3531
I2
sg3532
F2.0
sbs(g90
g73
tp5801
g0
(g3520
g2
Ntp5802
Rp5803
(dp5804
g3524
F0.5
sg3525
I10
sg3526
g3527
((dp5805
I00
I10
stp5806
Rp5807
sg3531
I2
sg3532
F11.0
sbs(g1552
g1549
tp5808
g0
(g3520
g2
Ntp5809
Rp5810
(dp5811
g3524
F0.5
sg3525
I1
sg3526
g3527
((dp5812
I00
I1
stp5813
Rp5814
sg3531
I2
sg3532
F2.0
sbs(g90
g85
tp5815
g0
(g3520
g2
Ntp5816
Rp5817
(dp5818
g3524
F0.5
sg3525
I10
sg3526
g3527
((dp5819
I00
I10
stp5820
Rp5821
sg3531
I2
sg3532
F11.0
sbs(g821
g743
tp5822
g0
(g3520
g2
Ntp5823
Rp5824
(dp5825
g3524
F0.5
sg3525
I7
sg3526
g3527
((dp5826
I00
I7
stp5827
Rp5828
sg3531
I2
sg3532
F8.0
sbs(g1552
g1481
tp5829
g0
(g3520
g2
Ntp5830
Rp5831
(dp5832
g3524
F0.5
sg3525
I1
sg3526
g3527
((dp5833
I00
I1
stp5834
Rp5835
sg3531
I2
sg3532
F2.0
sbs(g90
g47
tp5836
g0
(g3520
g2
Ntp5837
Rp5838
(dp5839
g3524
F0.5
sg3525
I10
sg3526
g3527
((dp5840
I00
I10
stp5841
Rp5842
sg3531
I2
sg3532
F11.0
sbs(g1146
g1135
tp5843
g0
(g3520
g2
Ntp5844
Rp5845
(dp5846
g3524
F0.5
sg3525
I16
sg3526
g3527
((dp5847
I00
I16
stp5848
Rp5849
sg3531
I2
sg3532
F17.0
sbs(g90
g19
tp5850
g0
(g3520
g2
Ntp5851
Rp5852
(dp5853
g3524
F0.5
sg3525
I10
sg3526
g3527
((dp5854
I00
I10
stp5855
Rp5856
sg3531
I2
sg3532
F11.0
sbs(g821
g789
tp5857
g0
(g3520
g2
Ntp5858
Rp5859
(dp5860
g3524
F0.5
sg3525
I7
sg3526
g3527
((dp5861
I00
I7
stp5862
Rp5863
sg3531
I2
sg3532
F8.0
sbs(g90
g45
tp5864
g0
(g3520
g2
Ntp5865
Rp5866
(dp5867
g3524
F0.5
sg3525
I10
sg3526
g3527
((dp5868
I00
I10
stp5869
Rp5870
sg3531
I2
sg3532
F11.0
sbs(g821
g804
tp5871
g0
(g3520
g2
Ntp5872
Rp5873
(dp5874
g3524
F0.5
sg3525
I7
sg3526
g3527
((dp5875
I00
I7
stp5876
Rp5877
sg3531
I2
sg3532
F8.0
sbs(g1552
g1512
tp5878
g0
(g3520
g2
Ntp5879
Rp5880
(dp5881
g3524
F0.5
sg3525
I1
sg3526
g3527
((dp5882
I00
I1
stp5883
Rp5884
sg3531
I2
sg3532
F2.0
sbs(g1552
g1480
tp5885
g0
(g3520
g2
Ntp5886
Rp5887
(dp5888
g3524
F0.5
sg3525
I1
sg3526
g3527
((dp5889
I00
I1
stp5890
Rp5891
sg3531
I2
sg3532
F2.0
sbs(g90
g35
tp5892
g0
(g3520
g2
Ntp5893
Rp5894
(dp5895
g3524
F0.5
sg3525
I10
sg3526
g3527
((dp5896
I00
I10
stp5897
Rp5898
sg3531
I2
sg3532
F11.0
sbs(g1552
g1500
tp5899
g0
(g3520
g2
Ntp5900
Rp5901
(dp5902
g3524
F0.5
sg3525
I1
sg3526
g3527
((dp5903
I00
I1
stp5904
Rp5905
sg3531
I2
sg3532
F2.0
sbs(g496
g489
tp5906
g0
(g3520
g2
Ntp5907
Rp5908
(dp5909
g3524
F0.5
sg3525
I8
sg3526
g3527
((dp5910
I00
I8
stp5911
Rp5912
sg3531
I2
sg3532
F9.0
sbs(g821
g798
tp5913
g0
(g3520
g2
Ntp5914
Rp5915
(dp5916
g3524
F0.5
sg3525
I7
sg3526
g3527
((dp5917
I00
I7
stp5918
Rp5919
sg3531
I2
sg3532
F8.0
sbs(g496
g485
tp5920
g0
(g3520
g2
Ntp5921
Rp5922
(dp5923
g3524
F0.5
sg3525
I8
sg3526
g3527
((dp5924
I00
I8
stp5925
Rp5926
sg3531
I2
sg3532
F9.0
sbs(g90
g86
tp5927
g0
(g3520
g2
Ntp5928
Rp5929
(dp5930
g3524
F0.5
sg3525
I10
sg3526
g3527
((dp5931
I00
I9
sI01
I1
stp5932
Rp5933
sg3531
I2
sg3532
F11.0
sbs(g821
g764
tp5934
g0
(g3520
g2
Ntp5935
Rp5936
(dp5937
g3524
F0.5
sg3525
I7
sg3526
g3527
((dp5938
I00
I7
stp5939
Rp5940
sg3531
I2
sg3532
F8.0
sbs(g821
g790
tp5941
g0
(g3520
g2
Ntp5942
Rp5943
(dp5944
g3524
F0.5
sg3525
I7
sg3526
g3527
((dp5945
I00
I7
stp5946
Rp5947
sg3531
I2
sg3532
F8.0
sbs(g1146
g1095
tp5948
g0
(g3520
g2
Ntp5949
Rp5950
(dp5951
g3524
F0.5
sg3525
I16
sg3526
g3527
((dp5952
I00
I14
sI01
I2
stp5953
Rp5954
sg3531
I2
sg3532
F17.0
sbs(g821
g810
tp5955
g0
(g3520
g2
Ntp5956
Rp5957
(dp5958
g3524
F0.5
sg3525
I7
sg3526
g3527
((dp5959
I00
I7
stp5960
Rp5961
sg3531
I2
sg3532
F8.0
sbs(g821
g776
tp5962
g0
(g3520
g2
Ntp5963
Rp5964
(dp5965
g3524
F0.5
sg3525
I7
sg3526
g3527
((dp5966
I00
I7
stp5967
Rp5968
sg3531
I2
sg3532
F8.0
sbs(g496
g475
tp5969
g0
(g3520
g2
Ntp5970
Rp5971
(dp5972
g3524
F0.5
sg3525
I8
sg3526
g3527
((dp5973
I00
I7
sI01
I1
stp5974
Rp5975
sg3531
I2
sg3532
F9.0
sbs(g1146
g1132
tp5976
g0
(g3520
g2
Ntp5977
Rp5978
(dp5979
g3524
F0.5
sg3525
I16
sg3526
g3527
((dp5980
I00
I16
stp5981
Rp5982
sg3531
I2
sg3532
F17.0
sbs(g1146
g1090
tp5983
g0
(g3520
g2
Ntp5984
Rp5985
(dp5986
g3524
F0.5
sg3525
I16
sg3526
g3527
((dp5987
I00
I16
stp5988
Rp5989
sg3531
I2
sg3532
F17.0
sbs(g821
g800
tp5990
g0
(g3520
g2
Ntp5991
Rp5992
(dp5993
g3524
F0.5
sg3525
I7
sg3526
g3527
((dp5994
I00
I7
stp5995
Rp5996
sg3531
I2
sg3532
F8.0
sbs(g1146
g1138
tp5997
g0
(g3520
g2
Ntp5998
Rp5999
(dp6000
g3524
F0.5
sg3525
I16
sg3526
g3527
((dp6001
I00
I16
stp6002
Rp6003
sg3531
I2
sg3532
F17.0
sbs(g1552
g1487
tp6004
g0
(g3520
g2
Ntp6005
Rp6006
(dp6007
g3524
F0.5
sg3525
I1
sg3526
g3527
((dp6008
I00
I1
stp6009
Rp6010
sg3531
I2
sg3532
F2.0
sbs(g1552
g1503
tp6011
g0
(g3520
g2
Ntp6012
Rp6013
(dp6014
g3524
F0.5
sg3525
I1
sg3526
g3527
((dp6015
I00
I1
stp6016
Rp6017
sg3531
I2
sg3532
F2.0
sbs(g496
g426
tp6018
g0
(g3520
g2
Ntp6019
Rp6020
(dp6021
g3524
F0.5
sg3525
I8
sg3526
g3527
((dp6022
I00
I8
stp6023
Rp6024
sg3531
I2
sg3532
F9.0
sbs(g496
g467
tp6025
g0
(g3520
g2
Ntp6026
Rp6027
(dp6028
g3524
F0.5
sg3525
I8
sg3526
g3527
((dp6029
I00
I7
sI01
I1
stp6030
Rp6031
sg3531
I2
sg3532
F9.0
sbs(g1146
g1105
tp6032
g0
(g3520
g2
Ntp6033
Rp6034
(dp6035
g3524
F0.5
sg3525
I16
sg3526
g3527
((dp6036
I00
I16
stp6037
Rp6038
sg3531
I2
sg3532
F17.0
sbs(g90
g49
tp6039
g0
(g3520
g2
Ntp6040
Rp6041
(dp6042
g3524
F0.5
sg3525
I10
sg3526
g3527
((dp6043
I00
I8
sI01
I2
stp6044
Rp6045
sg3531
I2
sg3532
F11.0
sbs(g496
g451
tp6046
g0
(g3520
g2
Ntp6047
Rp6048
(dp6049
g3524
F0.5
sg3525
I8
sg3526
g3527
((dp6050
I00
I7
sI01
I1
stp6051
Rp6052
sg3531
I2
sg3532
F9.0
sbs(g821
g770
tp6053
g0
(g3520
g2
Ntp6054
Rp6055
(dp6056
g3524
F0.5
sg3525
I7
sg3526
g3527
((dp6057
I00
I7
stp6058
Rp6059
sg3531
I2
sg3532
F8.0
sbs(g821
g815
tp6060
g0
(g3520
g2
Ntp6061
Rp6062
(dp6063
g3524
F0.5
sg3525
I7
sg3526
g3527
((dp6064
I00
I7
stp6065
Rp6066
sg3531
I2
sg3532
F8.0
sbs(g821
g765
tp6067
g0
(g3520
g2
Ntp6068
Rp6069
(dp6070
g3524
F0.5
sg3525
I7
sg3526
g3527
((dp6071
I00
I7
stp6072
Rp6073
sg3531
I2
sg3532
F8.0
sbs(g1146
g1106
tp6074
g0
(g3520
g2
Ntp6075
Rp6076
(dp6077
g3524
F0.5
sg3525
I16
sg3526
g3527
((dp6078
I00
I16
stp6079
Rp6080
sg3531
I2
sg3532
F17.0
sbs(g90
g22
tp6081
g0
(g3520
g2
Ntp6082
Rp6083
(dp6084
g3524
F0.5
sg3525
I10
sg3526
g3527
((dp6085
I00
I10
stp6086
Rp6087
sg3531
I2
sg3532
F11.0
sbs(g821
g792
tp6088
g0
(g3520
g2
Ntp6089
Rp6090
(dp6091
g3524
F0.5
sg3525
I7
sg3526
g3527
((dp6092
I00
I7
stp6093
Rp6094
sg3531
I2
sg3532
F8.0
sbs(g1146
g1107
tp6095
g0
(g3520
g2
Ntp6096
Rp6097
(dp6098
g3524
F0.5
sg3525
I16
sg3526
g3527
((dp6099
I00
I16
stp6100
Rp6101
sg3531
I2
sg3532
F17.0
sbs(g821
g811
tp6102
g0
(g3520
g2
Ntp6103
Rp6104
(dp6105
g3524
F0.5
sg3525
I7
sg3526
g3527
((dp6106
I00
I7
stp6107
Rp6108
sg3531
I2
sg3532
F8.0
sbs(g496
g440
tp6109
g0
(g3520
g2
Ntp6110
Rp6111
(dp6112
g3524
F0.5
sg3525
I8
sg3526
g3527
((dp6113
I00
I8
stp6114
Rp6115
sg3531
I2
sg3532
F9.0
sbs(g1146
g1142
tp6116
g0
(g3520
g2
Ntp6117
Rp6118
(dp6119
g3524
F0.5
sg3525
I16
sg3526
g3527
((dp6120
I00
I16
stp6121
Rp6122
sg3531
I2
sg3532
F17.0
sbs(g1552
g1539
tp6123
g0
(g3520
g2
Ntp6124
Rp6125
(dp6126
g3524
F0.5
sg3525
I1
sg3526
g3527
((dp6127
I00
I1
stp6128
Rp6129
sg3531
I2
sg3532
F2.0
sbs(g1146
g1097
tp6130
g0
(g3520
g2
Ntp6131
Rp6132
(dp6133
g3524
F0.5
sg3525
I16
sg3526
g3527
((dp6134
I00
I16
stp6135
Rp6136
sg3531
I2
sg3532
F17.0
sbs(g1552
g1542
tp6137
g0
(g3520
g2
Ntp6138
Rp6139
(dp6140
g3524
F0.5
sg3525
I1
sg3526
g3527
((dp6141
I00
I1
stp6142
Rp6143
sg3531
I2
sg3532
F2.0
sbs(g1146
g1081
tp6144
g0
(g3520
g2
Ntp6145
Rp6146
(dp6147
g3524
F0.5
sg3525
I16
sg3526
g3527
((dp6148
I00
I15
sI01
I1
stp6149
Rp6150
sg3531
I2
sg3532
F17.0
sbs(g90
g76
tp6151
g0
(g3520
g2
Ntp6152
Rp6153
(dp6154
g3524
F0.5
sg3525
I10
sg3526
g3527
((dp6155
I00
I10
stp6156
Rp6157
sg3531
I2
sg3532
F11.0
sbs(g90
g44
tp6158
g0
(g3520
g2
Ntp6159
Rp6160
(dp6161
g3524
F0.5
sg3525
I10
sg3526
g3527
((dp6162
I00
I10
stp6163
Rp6164
sg3531
I2
sg3532
F11.0
sbs(g90
g61
tp6165
g0
(g3520
g2
Ntp6166
Rp6167
(dp6168
g3524
F0.5
sg3525
I10
sg3526
g3527
((dp6169
I00
I10
stp6170
Rp6171
sg3531
I2
sg3532
F11.0
sbs(g90
g40
tp6172
g0
(g3520
g2
Ntp6173
Rp6174
(dp6175
g3524
F0.5
sg3525
I10
sg3526
g3527
((dp6176
I00
I9
sI01
I1
stp6177
Rp6178
sg3531
I2
sg3532
F11.0
sbs(g1552
g1502
tp6179
g0
(g3520
g2
Ntp6180
Rp6181
(dp6182
g3524
F0.5
sg3525
I1
sg3526
g3527
((dp6183
I00
I1
stp6184
Rp6185
sg3531
I2
sg3532
F2.0
sbs(g90
g26
tp6186
g0
(g3520
g2
Ntp6187
Rp6188
(dp6189
g3524
F0.5
sg3525
I10
sg3526
g3527
((dp6190
I00
I9
sI01
I1
stp6191
Rp6192
sg3531
I2
sg3532
F11.0
sbs(g90
g21
tp6193
g0
(g3520
g2
Ntp6194
Rp6195
(dp6196
g3524
F0.5
sg3525
I10
sg3526
g3527
((dp6197
I00
I10
stp6198
Rp6199
sg3531
I2
sg3532
F11.0
sbs(g1146
g1126
tp6200
g0
(g3520
g2
Ntp6201
Rp6202
(dp6203
g3524
F0.5
sg3525
I16
sg3526
g3527
((dp6204
I00
I16
stp6205
Rp6206
sg3531
I2
sg3532
F17.0
sbs(g821
g742
tp6207
g0
(g3520
g2
Ntp6208
Rp6209
(dp6210
g3524
F0.5
sg3525
I7
sg3526
g3527
((dp6211
I00
I7
stp6212
Rp6213
sg3531
I2
sg3532
F8.0
sbs(g1552
g1529
tp6214
g0
(g3520
g2
Ntp6215
Rp6216
(dp6217
g3524
F0.5
sg3525
I1
sg3526
g3527
((dp6218
I00
I1
stp6219
Rp6220
sg3531
I2
sg3532
F2.0
sbs(g496
g488
tp6221
g0
(g3520
g2
Ntp6222
Rp6223
(dp6224
g3524
F0.5
sg3525
I8
sg3526
g3527
((dp6225
I00
I7
sI01
I1
stp6226
Rp6227
sg3531
I2
sg3532
F9.0
sbs(g496
g459
tp6228
g0
(g3520
g2
Ntp6229
Rp6230
(dp6231
g3524
F0.5
sg3525
I8
sg3526
g3527
((dp6232
I00
I8
stp6233
Rp6234
sg3531
I2
sg3532
F9.0
sbs(g90
g87
tp6235
g0
(g3520
g2
Ntp6236
Rp6237
(dp6238
g3524
F0.5
sg3525
I10
sg3526
g3527
((dp6239
I00
I10
stp6240
Rp6241
sg3531
I2
sg3532
F11.0
sbs(g90
g56
tp6242
g0
(g3520
g2
Ntp6243
Rp6244
(dp6245
g3524
F0.5
sg3525
I10
sg3526
g3527
((dp6246
I00
I9
sI01
I1
stp6247
Rp6248
sg3531
I2
sg3532
F11.0
sbs(g821
g771
tp6249
g0
(g3520
g2
Ntp6250
Rp6251
(dp6252
g3524
F0.5
sg3525
I7
sg3526
g3527
((dp6253
I00
I6
sI01
I1
stp6254
Rp6255
sg3531
I2
sg3532
F8.0
sbs(g821
g813
tp6256
g0
(g3520
g2
Ntp6257
Rp6258
(dp6259
g3524
F0.5
sg3525
I7
sg3526
g3527
((dp6260
I00
I7
stp6261
Rp6262
sg3531
I2
sg3532
F8.0
sbs(g90
g68
tp6263
g0
(g3520
g2
Ntp6264
Rp6265
(dp6266
g3524
F0.5
sg3525
I10
sg3526
g3527
((dp6267
I00
I10
stp6268
Rp6269
sg3531
I2
sg3532
F11.0
sbs(g496
g452
tp6270
g0
(g3520
g2
Ntp6271
Rp6272
(dp6273
g3524
F0.5
sg3525
I8
sg3526
g3527
((dp6274
I00
I8
stp6275
Rp6276
sg3531
I2
sg3532
F9.0
sbs(g90
g79
tp6277
g0
(g3520
g2
Ntp6278
Rp6279
(dp6280
g3524
F0.5
sg3525
I10
sg3526
g3527
((dp6281
I00
I8
sI01
I2
stp6282
Rp6283
sg3531
I2
sg3532
F11.0
sbs(g496
g454
tp6284
g0
(g3520
g2
Ntp6285
Rp6286
(dp6287
g3524
F0.5
sg3525
I8
sg3526
g3527
((dp6288
I00
I8
stp6289
Rp6290
sg3531
I2
sg3532
F9.0
sbssS'_label_probdist'
p6291
g0
(g3520
g2
Ntp6292
Rp6293
(dp6294
g3524
F0.5
sg3525
I42
sg3526
g3527
((dp6295
g90
I10
sg496
I8
sg1552
I1
sg1146
I16
sg821
I7
stp6296
Rp6297
sg3531
I5
sg3532
F44.5
sbsbsb.